
build/loongarch32r-nemu-interpreter:     file format elf64-x86-64


Disassembly of section .init:

0000000000002000 <_init>:
    2000:	f3 0f 1e fa          	endbr64 
    2004:	48 83 ec 08          	sub    $0x8,%rsp
    2008:	48 8b 05 c9 bf 00 00 	mov    0xbfc9(%rip),%rax        # dfd8 <__gmon_start__@Base>
    200f:	48 85 c0             	test   %rax,%rax
    2012:	74 02                	je     2016 <_init+0x16>
    2014:	ff d0                	call   *%rax
    2016:	48 83 c4 08          	add    $0x8,%rsp
    201a:	c3                   	ret    

Disassembly of section .plt:

0000000000002020 <.plt>:
    2020:	ff 35 02 be 00 00    	push   0xbe02(%rip)        # de28 <_GLOBAL_OFFSET_TABLE_+0x8>
    2026:	f2 ff 25 03 be 00 00 	bnd jmp *0xbe03(%rip)        # de30 <_GLOBAL_OFFSET_TABLE_+0x10>
    202d:	0f 1f 00             	nopl   (%rax)
    2030:	f3 0f 1e fa          	endbr64 
    2034:	68 00 00 00 00       	push   $0x0
    2039:	f2 e9 e1 ff ff ff    	bnd jmp 2020 <_init+0x20>
    203f:	90                   	nop
    2040:	f3 0f 1e fa          	endbr64 
    2044:	68 01 00 00 00       	push   $0x1
    2049:	f2 e9 d1 ff ff ff    	bnd jmp 2020 <_init+0x20>
    204f:	90                   	nop
    2050:	f3 0f 1e fa          	endbr64 
    2054:	68 02 00 00 00       	push   $0x2
    2059:	f2 e9 c1 ff ff ff    	bnd jmp 2020 <_init+0x20>
    205f:	90                   	nop
    2060:	f3 0f 1e fa          	endbr64 
    2064:	68 03 00 00 00       	push   $0x3
    2069:	f2 e9 b1 ff ff ff    	bnd jmp 2020 <_init+0x20>
    206f:	90                   	nop
    2070:	f3 0f 1e fa          	endbr64 
    2074:	68 04 00 00 00       	push   $0x4
    2079:	f2 e9 a1 ff ff ff    	bnd jmp 2020 <_init+0x20>
    207f:	90                   	nop
    2080:	f3 0f 1e fa          	endbr64 
    2084:	68 05 00 00 00       	push   $0x5
    2089:	f2 e9 91 ff ff ff    	bnd jmp 2020 <_init+0x20>
    208f:	90                   	nop
    2090:	f3 0f 1e fa          	endbr64 
    2094:	68 06 00 00 00       	push   $0x6
    2099:	f2 e9 81 ff ff ff    	bnd jmp 2020 <_init+0x20>
    209f:	90                   	nop
    20a0:	f3 0f 1e fa          	endbr64 
    20a4:	68 07 00 00 00       	push   $0x7
    20a9:	f2 e9 71 ff ff ff    	bnd jmp 2020 <_init+0x20>
    20af:	90                   	nop
    20b0:	f3 0f 1e fa          	endbr64 
    20b4:	68 08 00 00 00       	push   $0x8
    20b9:	f2 e9 61 ff ff ff    	bnd jmp 2020 <_init+0x20>
    20bf:	90                   	nop
    20c0:	f3 0f 1e fa          	endbr64 
    20c4:	68 09 00 00 00       	push   $0x9
    20c9:	f2 e9 51 ff ff ff    	bnd jmp 2020 <_init+0x20>
    20cf:	90                   	nop
    20d0:	f3 0f 1e fa          	endbr64 
    20d4:	68 0a 00 00 00       	push   $0xa
    20d9:	f2 e9 41 ff ff ff    	bnd jmp 2020 <_init+0x20>
    20df:	90                   	nop
    20e0:	f3 0f 1e fa          	endbr64 
    20e4:	68 0b 00 00 00       	push   $0xb
    20e9:	f2 e9 31 ff ff ff    	bnd jmp 2020 <_init+0x20>
    20ef:	90                   	nop
    20f0:	f3 0f 1e fa          	endbr64 
    20f4:	68 0c 00 00 00       	push   $0xc
    20f9:	f2 e9 21 ff ff ff    	bnd jmp 2020 <_init+0x20>
    20ff:	90                   	nop
    2100:	f3 0f 1e fa          	endbr64 
    2104:	68 0d 00 00 00       	push   $0xd
    2109:	f2 e9 11 ff ff ff    	bnd jmp 2020 <_init+0x20>
    210f:	90                   	nop
    2110:	f3 0f 1e fa          	endbr64 
    2114:	68 0e 00 00 00       	push   $0xe
    2119:	f2 e9 01 ff ff ff    	bnd jmp 2020 <_init+0x20>
    211f:	90                   	nop
    2120:	f3 0f 1e fa          	endbr64 
    2124:	68 0f 00 00 00       	push   $0xf
    2129:	f2 e9 f1 fe ff ff    	bnd jmp 2020 <_init+0x20>
    212f:	90                   	nop
    2130:	f3 0f 1e fa          	endbr64 
    2134:	68 10 00 00 00       	push   $0x10
    2139:	f2 e9 e1 fe ff ff    	bnd jmp 2020 <_init+0x20>
    213f:	90                   	nop
    2140:	f3 0f 1e fa          	endbr64 
    2144:	68 11 00 00 00       	push   $0x11
    2149:	f2 e9 d1 fe ff ff    	bnd jmp 2020 <_init+0x20>
    214f:	90                   	nop
    2150:	f3 0f 1e fa          	endbr64 
    2154:	68 12 00 00 00       	push   $0x12
    2159:	f2 e9 c1 fe ff ff    	bnd jmp 2020 <_init+0x20>
    215f:	90                   	nop
    2160:	f3 0f 1e fa          	endbr64 
    2164:	68 13 00 00 00       	push   $0x13
    2169:	f2 e9 b1 fe ff ff    	bnd jmp 2020 <_init+0x20>
    216f:	90                   	nop
    2170:	f3 0f 1e fa          	endbr64 
    2174:	68 14 00 00 00       	push   $0x14
    2179:	f2 e9 a1 fe ff ff    	bnd jmp 2020 <_init+0x20>
    217f:	90                   	nop
    2180:	f3 0f 1e fa          	endbr64 
    2184:	68 15 00 00 00       	push   $0x15
    2189:	f2 e9 91 fe ff ff    	bnd jmp 2020 <_init+0x20>
    218f:	90                   	nop
    2190:	f3 0f 1e fa          	endbr64 
    2194:	68 16 00 00 00       	push   $0x16
    2199:	f2 e9 81 fe ff ff    	bnd jmp 2020 <_init+0x20>
    219f:	90                   	nop
    21a0:	f3 0f 1e fa          	endbr64 
    21a4:	68 17 00 00 00       	push   $0x17
    21a9:	f2 e9 71 fe ff ff    	bnd jmp 2020 <_init+0x20>
    21af:	90                   	nop
    21b0:	f3 0f 1e fa          	endbr64 
    21b4:	68 18 00 00 00       	push   $0x18
    21b9:	f2 e9 61 fe ff ff    	bnd jmp 2020 <_init+0x20>
    21bf:	90                   	nop
    21c0:	f3 0f 1e fa          	endbr64 
    21c4:	68 19 00 00 00       	push   $0x19
    21c9:	f2 e9 51 fe ff ff    	bnd jmp 2020 <_init+0x20>
    21cf:	90                   	nop
    21d0:	f3 0f 1e fa          	endbr64 
    21d4:	68 1a 00 00 00       	push   $0x1a
    21d9:	f2 e9 41 fe ff ff    	bnd jmp 2020 <_init+0x20>
    21df:	90                   	nop
    21e0:	f3 0f 1e fa          	endbr64 
    21e4:	68 1b 00 00 00       	push   $0x1b
    21e9:	f2 e9 31 fe ff ff    	bnd jmp 2020 <_init+0x20>
    21ef:	90                   	nop
    21f0:	f3 0f 1e fa          	endbr64 
    21f4:	68 1c 00 00 00       	push   $0x1c
    21f9:	f2 e9 21 fe ff ff    	bnd jmp 2020 <_init+0x20>
    21ff:	90                   	nop
    2200:	f3 0f 1e fa          	endbr64 
    2204:	68 1d 00 00 00       	push   $0x1d
    2209:	f2 e9 11 fe ff ff    	bnd jmp 2020 <_init+0x20>
    220f:	90                   	nop
    2210:	f3 0f 1e fa          	endbr64 
    2214:	68 1e 00 00 00       	push   $0x1e
    2219:	f2 e9 01 fe ff ff    	bnd jmp 2020 <_init+0x20>
    221f:	90                   	nop
    2220:	f3 0f 1e fa          	endbr64 
    2224:	68 1f 00 00 00       	push   $0x1f
    2229:	f2 e9 f1 fd ff ff    	bnd jmp 2020 <_init+0x20>
    222f:	90                   	nop
    2230:	f3 0f 1e fa          	endbr64 
    2234:	68 20 00 00 00       	push   $0x20
    2239:	f2 e9 e1 fd ff ff    	bnd jmp 2020 <_init+0x20>
    223f:	90                   	nop
    2240:	f3 0f 1e fa          	endbr64 
    2244:	68 21 00 00 00       	push   $0x21
    2249:	f2 e9 d1 fd ff ff    	bnd jmp 2020 <_init+0x20>
    224f:	90                   	nop
    2250:	f3 0f 1e fa          	endbr64 
    2254:	68 22 00 00 00       	push   $0x22
    2259:	f2 e9 c1 fd ff ff    	bnd jmp 2020 <_init+0x20>
    225f:	90                   	nop
    2260:	f3 0f 1e fa          	endbr64 
    2264:	68 23 00 00 00       	push   $0x23
    2269:	f2 e9 b1 fd ff ff    	bnd jmp 2020 <_init+0x20>
    226f:	90                   	nop
    2270:	f3 0f 1e fa          	endbr64 
    2274:	68 24 00 00 00       	push   $0x24
    2279:	f2 e9 a1 fd ff ff    	bnd jmp 2020 <_init+0x20>
    227f:	90                   	nop
    2280:	f3 0f 1e fa          	endbr64 
    2284:	68 25 00 00 00       	push   $0x25
    2289:	f2 e9 91 fd ff ff    	bnd jmp 2020 <_init+0x20>
    228f:	90                   	nop
    2290:	f3 0f 1e fa          	endbr64 
    2294:	68 26 00 00 00       	push   $0x26
    2299:	f2 e9 81 fd ff ff    	bnd jmp 2020 <_init+0x20>
    229f:	90                   	nop
    22a0:	f3 0f 1e fa          	endbr64 
    22a4:	68 27 00 00 00       	push   $0x27
    22a9:	f2 e9 71 fd ff ff    	bnd jmp 2020 <_init+0x20>
    22af:	90                   	nop
    22b0:	f3 0f 1e fa          	endbr64 
    22b4:	68 28 00 00 00       	push   $0x28
    22b9:	f2 e9 61 fd ff ff    	bnd jmp 2020 <_init+0x20>
    22bf:	90                   	nop
    22c0:	f3 0f 1e fa          	endbr64 
    22c4:	68 29 00 00 00       	push   $0x29
    22c9:	f2 e9 51 fd ff ff    	bnd jmp 2020 <_init+0x20>
    22cf:	90                   	nop
    22d0:	f3 0f 1e fa          	endbr64 
    22d4:	68 2a 00 00 00       	push   $0x2a
    22d9:	f2 e9 41 fd ff ff    	bnd jmp 2020 <_init+0x20>
    22df:	90                   	nop
    22e0:	f3 0f 1e fa          	endbr64 
    22e4:	68 2b 00 00 00       	push   $0x2b
    22e9:	f2 e9 31 fd ff ff    	bnd jmp 2020 <_init+0x20>
    22ef:	90                   	nop
    22f0:	f3 0f 1e fa          	endbr64 
    22f4:	68 2c 00 00 00       	push   $0x2c
    22f9:	f2 e9 21 fd ff ff    	bnd jmp 2020 <_init+0x20>
    22ff:	90                   	nop
    2300:	f3 0f 1e fa          	endbr64 
    2304:	68 2d 00 00 00       	push   $0x2d
    2309:	f2 e9 11 fd ff ff    	bnd jmp 2020 <_init+0x20>
    230f:	90                   	nop
    2310:	f3 0f 1e fa          	endbr64 
    2314:	68 2e 00 00 00       	push   $0x2e
    2319:	f2 e9 01 fd ff ff    	bnd jmp 2020 <_init+0x20>
    231f:	90                   	nop
    2320:	f3 0f 1e fa          	endbr64 
    2324:	68 2f 00 00 00       	push   $0x2f
    2329:	f2 e9 f1 fc ff ff    	bnd jmp 2020 <_init+0x20>
    232f:	90                   	nop
    2330:	f3 0f 1e fa          	endbr64 
    2334:	68 30 00 00 00       	push   $0x30
    2339:	f2 e9 e1 fc ff ff    	bnd jmp 2020 <_init+0x20>
    233f:	90                   	nop

Disassembly of section .plt.got:

0000000000002340 <__cxa_finalize@plt>:
    2340:	f3 0f 1e fa          	endbr64 
    2344:	f2 ff 25 75 bc 00 00 	bnd jmp *0xbc75(%rip)        # dfc0 <__cxa_finalize@GLIBC_2.2.5>
    234b:	0f 1f 44 00 00       	nopl   0x0(%rax,%rax,1)

Disassembly of section .plt.sec:

0000000000002350 <__printf_chk@plt>:
    2350:	f3 0f 1e fa          	endbr64 
    2354:	f2 ff 25 dd ba 00 00 	bnd jmp *0xbadd(%rip)        # de38 <__printf_chk@GLIBC_2.3.4>
    235b:	0f 1f 44 00 00       	nopl   0x0(%rax,%rax,1)

0000000000002360 <ftell@plt>:
    2360:	f3 0f 1e fa          	endbr64 
    2364:	f2 ff 25 d5 ba 00 00 	bnd jmp *0xbad5(%rip)        # de40 <ftell@GLIBC_2.2.5>
    236b:	0f 1f 44 00 00       	nopl   0x0(%rax,%rax,1)

0000000000002370 <SDL_RenderPresent@plt>:
    2370:	f3 0f 1e fa          	endbr64 
    2374:	f2 ff 25 cd ba 00 00 	bnd jmp *0xbacd(%rip)        # de48 <SDL_RenderPresent@Base>
    237b:	0f 1f 44 00 00       	nopl   0x0(%rax,%rax,1)

0000000000002380 <rand@plt>:
    2380:	f3 0f 1e fa          	endbr64 
    2384:	f2 ff 25 c5 ba 00 00 	bnd jmp *0xbac5(%rip)        # de50 <rand@GLIBC_2.2.5>
    238b:	0f 1f 44 00 00       	nopl   0x0(%rax,%rax,1)

0000000000002390 <SDL_CreateWindowAndRenderer@plt>:
    2390:	f3 0f 1e fa          	endbr64 
    2394:	f2 ff 25 bd ba 00 00 	bnd jmp *0xbabd(%rip)        # de58 <SDL_CreateWindowAndRenderer@Base>
    239b:	0f 1f 44 00 00       	nopl   0x0(%rax,%rax,1)

00000000000023a0 <strlen@plt>:
    23a0:	f3 0f 1e fa          	endbr64 
    23a4:	f2 ff 25 b5 ba 00 00 	bnd jmp *0xbab5(%rip)        # de60 <strlen@GLIBC_2.2.5>
    23ab:	0f 1f 44 00 00       	nopl   0x0(%rax,%rax,1)

00000000000023b0 <regerror@plt>:
    23b0:	f3 0f 1e fa          	endbr64 
    23b4:	f2 ff 25 ad ba 00 00 	bnd jmp *0xbaad(%rip)        # de68 <regerror@GLIBC_2.2.5>
    23bb:	0f 1f 44 00 00       	nopl   0x0(%rax,%rax,1)

00000000000023c0 <memset@plt>:
    23c0:	f3 0f 1e fa          	endbr64 
    23c4:	f2 ff 25 a5 ba 00 00 	bnd jmp *0xbaa5(%rip)        # de70 <memset@GLIBC_2.2.5>
    23cb:	0f 1f 44 00 00       	nopl   0x0(%rax,%rax,1)

00000000000023d0 <__strncpy_chk@plt>:
    23d0:	f3 0f 1e fa          	endbr64 
    23d4:	f2 ff 25 9d ba 00 00 	bnd jmp *0xba9d(%rip)        # de78 <__strncpy_chk@GLIBC_2.3.4>
    23db:	0f 1f 44 00 00       	nopl   0x0(%rax,%rax,1)

00000000000023e0 <__sprintf_chk@plt>:
    23e0:	f3 0f 1e fa          	endbr64 
    23e4:	f2 ff 25 95 ba 00 00 	bnd jmp *0xba95(%rip)        # de80 <__sprintf_chk@GLIBC_2.3.4>
    23eb:	0f 1f 44 00 00       	nopl   0x0(%rax,%rax,1)

00000000000023f0 <SDL_PollEvent@plt>:
    23f0:	f3 0f 1e fa          	endbr64 
    23f4:	f2 ff 25 8d ba 00 00 	bnd jmp *0xba8d(%rip)        # de88 <SDL_PollEvent@Base>
    23fb:	0f 1f 44 00 00       	nopl   0x0(%rax,%rax,1)

0000000000002400 <__assert_fail@plt>:
    2400:	f3 0f 1e fa          	endbr64 
    2404:	f2 ff 25 85 ba 00 00 	bnd jmp *0xba85(%rip)        # de90 <__assert_fail@GLIBC_2.2.5>
    240b:	0f 1f 44 00 00       	nopl   0x0(%rax,%rax,1)

0000000000002410 <SDL_UpdateTexture@plt>:
    2410:	f3 0f 1e fa          	endbr64 
    2414:	f2 ff 25 7d ba 00 00 	bnd jmp *0xba7d(%rip)        # de98 <SDL_UpdateTexture@Base>
    241b:	0f 1f 44 00 00       	nopl   0x0(%rax,%rax,1)

0000000000002420 <setlocale@plt>:
    2420:	f3 0f 1e fa          	endbr64 
    2424:	f2 ff 25 75 ba 00 00 	bnd jmp *0xba75(%rip)        # dea0 <setlocale@GLIBC_2.2.5>
    242b:	0f 1f 44 00 00       	nopl   0x0(%rax,%rax,1)

0000000000002430 <SDL_Init@plt>:
    2430:	f3 0f 1e fa          	endbr64 
    2434:	f2 ff 25 6d ba 00 00 	bnd jmp *0xba6d(%rip)        # dea8 <SDL_Init@Base>
    243b:	0f 1f 44 00 00       	nopl   0x0(%rax,%rax,1)

0000000000002440 <readline@plt>:
    2440:	f3 0f 1e fa          	endbr64 
    2444:	f2 ff 25 65 ba 00 00 	bnd jmp *0xba65(%rip)        # deb0 <readline@Base>
    244b:	0f 1f 44 00 00       	nopl   0x0(%rax,%rax,1)

0000000000002450 <time@plt>:
    2450:	f3 0f 1e fa          	endbr64 
    2454:	f2 ff 25 5d ba 00 00 	bnd jmp *0xba5d(%rip)        # deb8 <time@GLIBC_2.2.5>
    245b:	0f 1f 44 00 00       	nopl   0x0(%rax,%rax,1)

0000000000002460 <strcpy@plt>:
    2460:	f3 0f 1e fa          	endbr64 
    2464:	f2 ff 25 55 ba 00 00 	bnd jmp *0xba55(%rip)        # dec0 <strcpy@GLIBC_2.2.5>
    246b:	0f 1f 44 00 00       	nopl   0x0(%rax,%rax,1)

0000000000002470 <SDL_RenderClear@plt>:
    2470:	f3 0f 1e fa          	endbr64 
    2474:	f2 ff 25 4d ba 00 00 	bnd jmp *0xba4d(%rip)        # dec8 <SDL_RenderClear@Base>
    247b:	0f 1f 44 00 00       	nopl   0x0(%rax,%rax,1)

0000000000002480 <srand@plt>:
    2480:	f3 0f 1e fa          	endbr64 
    2484:	f2 ff 25 45 ba 00 00 	bnd jmp *0xba45(%rip)        # ded0 <srand@GLIBC_2.2.5>
    248b:	0f 1f 44 00 00       	nopl   0x0(%rax,%rax,1)

0000000000002490 <__isoc99_sscanf@plt>:
    2490:	f3 0f 1e fa          	endbr64 
    2494:	f2 ff 25 3d ba 00 00 	bnd jmp *0xba3d(%rip)        # ded8 <__isoc99_sscanf@GLIBC_2.7>
    249b:	0f 1f 44 00 00       	nopl   0x0(%rax,%rax,1)

00000000000024a0 <fclose@plt>:
    24a0:	f3 0f 1e fa          	endbr64 
    24a4:	f2 ff 25 35 ba 00 00 	bnd jmp *0xba35(%rip)        # dee0 <fclose@GLIBC_2.2.5>
    24ab:	0f 1f 44 00 00       	nopl   0x0(%rax,%rax,1)

00000000000024b0 <fseek@plt>:
    24b0:	f3 0f 1e fa          	endbr64 
    24b4:	f2 ff 25 2d ba 00 00 	bnd jmp *0xba2d(%rip)        # dee8 <fseek@GLIBC_2.2.5>
    24bb:	0f 1f 44 00 00       	nopl   0x0(%rax,%rax,1)

00000000000024c0 <__stack_chk_fail@plt>:
    24c0:	f3 0f 1e fa          	endbr64 
    24c4:	f2 ff 25 25 ba 00 00 	bnd jmp *0xba25(%rip)        # def0 <__stack_chk_fail@GLIBC_2.4>
    24cb:	0f 1f 44 00 00       	nopl   0x0(%rax,%rax,1)

00000000000024d0 <SDL_RenderCopy@plt>:
    24d0:	f3 0f 1e fa          	endbr64 
    24d4:	f2 ff 25 1d ba 00 00 	bnd jmp *0xba1d(%rip)        # def8 <SDL_RenderCopy@Base>
    24db:	0f 1f 44 00 00       	nopl   0x0(%rax,%rax,1)

00000000000024e0 <__isoc99_scanf@plt>:
    24e0:	f3 0f 1e fa          	endbr64 
    24e4:	f2 ff 25 15 ba 00 00 	bnd jmp *0xba15(%rip)        # df00 <__isoc99_scanf@GLIBC_2.7>
    24eb:	0f 1f 44 00 00       	nopl   0x0(%rax,%rax,1)

00000000000024f0 <regcomp@plt>:
    24f0:	f3 0f 1e fa          	endbr64 
    24f4:	f2 ff 25 0d ba 00 00 	bnd jmp *0xba0d(%rip)        # df08 <regcomp@GLIBC_2.2.5>
    24fb:	0f 1f 44 00 00       	nopl   0x0(%rax,%rax,1)

0000000000002500 <fflush@plt>:
    2500:	f3 0f 1e fa          	endbr64 
    2504:	f2 ff 25 05 ba 00 00 	bnd jmp *0xba05(%rip)        # df10 <fflush@GLIBC_2.2.5>
    250b:	0f 1f 44 00 00       	nopl   0x0(%rax,%rax,1)

0000000000002510 <fopen@plt>:
    2510:	f3 0f 1e fa          	endbr64 
    2514:	f2 ff 25 fd b9 00 00 	bnd jmp *0xb9fd(%rip)        # df18 <fopen@GLIBC_2.2.5>
    251b:	0f 1f 44 00 00       	nopl   0x0(%rax,%rax,1)

0000000000002520 <free@plt>:
    2520:	f3 0f 1e fa          	endbr64 
    2524:	f2 ff 25 f5 b9 00 00 	bnd jmp *0xb9f5(%rip)        # df20 <free@GLIBC_2.2.5>
    252b:	0f 1f 44 00 00       	nopl   0x0(%rax,%rax,1)

0000000000002530 <exit@plt>:
    2530:	f3 0f 1e fa          	endbr64 
    2534:	f2 ff 25 ed b9 00 00 	bnd jmp *0xb9ed(%rip)        # df28 <exit@GLIBC_2.2.5>
    253b:	0f 1f 44 00 00       	nopl   0x0(%rax,%rax,1)

0000000000002540 <regexec@plt>:
    2540:	f3 0f 1e fa          	endbr64 
    2544:	f2 ff 25 e5 b9 00 00 	bnd jmp *0xb9e5(%rip)        # df30 <regexec@GLIBC_2.3.4>
    254b:	0f 1f 44 00 00       	nopl   0x0(%rax,%rax,1)

0000000000002550 <sigaction@plt>:
    2550:	f3 0f 1e fa          	endbr64 
    2554:	f2 ff 25 dd b9 00 00 	bnd jmp *0xb9dd(%rip)        # df38 <sigaction@GLIBC_2.2.5>
    255b:	0f 1f 44 00 00       	nopl   0x0(%rax,%rax,1)

0000000000002560 <add_history@plt>:
    2560:	f3 0f 1e fa          	endbr64 
    2564:	f2 ff 25 d5 b9 00 00 	bnd jmp *0xb9d5(%rip)        # df40 <add_history@Base>
    256b:	0f 1f 44 00 00       	nopl   0x0(%rax,%rax,1)

0000000000002570 <malloc@plt>:
    2570:	f3 0f 1e fa          	endbr64 
    2574:	f2 ff 25 cd b9 00 00 	bnd jmp *0xb9cd(%rip)        # df48 <malloc@GLIBC_2.2.5>
    257b:	0f 1f 44 00 00       	nopl   0x0(%rax,%rax,1)

0000000000002580 <putchar@plt>:
    2580:	f3 0f 1e fa          	endbr64 
    2584:	f2 ff 25 c5 b9 00 00 	bnd jmp *0xb9c5(%rip)        # df50 <putchar@GLIBC_2.2.5>
    258b:	0f 1f 44 00 00       	nopl   0x0(%rax,%rax,1)

0000000000002590 <strcmp@plt>:
    2590:	f3 0f 1e fa          	endbr64 
    2594:	f2 ff 25 bd b9 00 00 	bnd jmp *0xb9bd(%rip)        # df58 <strcmp@GLIBC_2.2.5>
    259b:	0f 1f 44 00 00       	nopl   0x0(%rax,%rax,1)

00000000000025a0 <strtol@plt>:
    25a0:	f3 0f 1e fa          	endbr64 
    25a4:	f2 ff 25 b5 b9 00 00 	bnd jmp *0xb9b5(%rip)        # df60 <strtol@GLIBC_2.2.5>
    25ab:	0f 1f 44 00 00       	nopl   0x0(%rax,%rax,1)

00000000000025b0 <setitimer@plt>:
    25b0:	f3 0f 1e fa          	endbr64 
    25b4:	f2 ff 25 ad b9 00 00 	bnd jmp *0xb9ad(%rip)        # df68 <setitimer@GLIBC_2.2.5>
    25bb:	0f 1f 44 00 00       	nopl   0x0(%rax,%rax,1)

00000000000025c0 <fread@plt>:
    25c0:	f3 0f 1e fa          	endbr64 
    25c4:	f2 ff 25 a5 b9 00 00 	bnd jmp *0xb9a5(%rip)        # df70 <fread@GLIBC_2.2.5>
    25cb:	0f 1f 44 00 00       	nopl   0x0(%rax,%rax,1)

00000000000025d0 <puts@plt>:
    25d0:	f3 0f 1e fa          	endbr64 
    25d4:	f2 ff 25 9d b9 00 00 	bnd jmp *0xb99d(%rip)        # df78 <puts@GLIBC_2.2.5>
    25db:	0f 1f 44 00 00       	nopl   0x0(%rax,%rax,1)

00000000000025e0 <strtok@plt>:
    25e0:	f3 0f 1e fa          	endbr64 
    25e4:	f2 ff 25 95 b9 00 00 	bnd jmp *0xb995(%rip)        # df80 <strtok@GLIBC_2.2.5>
    25eb:	0f 1f 44 00 00       	nopl   0x0(%rax,%rax,1)

00000000000025f0 <gettimeofday@plt>:
    25f0:	f3 0f 1e fa          	endbr64 
    25f4:	f2 ff 25 8d b9 00 00 	bnd jmp *0xb98d(%rip)        # df88 <gettimeofday@GLIBC_2.2.5>
    25fb:	0f 1f 44 00 00       	nopl   0x0(%rax,%rax,1)

0000000000002600 <__fprintf_chk@plt>:
    2600:	f3 0f 1e fa          	endbr64 
    2604:	f2 ff 25 85 b9 00 00 	bnd jmp *0xb985(%rip)        # df90 <__fprintf_chk@GLIBC_2.3.4>
    260b:	0f 1f 44 00 00       	nopl   0x0(%rax,%rax,1)

0000000000002610 <getopt_long@plt>:
    2610:	f3 0f 1e fa          	endbr64 
    2614:	f2 ff 25 7d b9 00 00 	bnd jmp *0xb97d(%rip)        # df98 <getopt_long@GLIBC_2.2.5>
    261b:	0f 1f 44 00 00       	nopl   0x0(%rax,%rax,1)

0000000000002620 <SDL_SetWindowTitle@plt>:
    2620:	f3 0f 1e fa          	endbr64 
    2624:	f2 ff 25 75 b9 00 00 	bnd jmp *0xb975(%rip)        # dfa0 <SDL_SetWindowTitle@Base>
    262b:	0f 1f 44 00 00       	nopl   0x0(%rax,%rax,1)

0000000000002630 <SDL_CreateTexture@plt>:
    2630:	f3 0f 1e fa          	endbr64 
    2634:	f2 ff 25 6d b9 00 00 	bnd jmp *0xb96d(%rip)        # dfa8 <SDL_CreateTexture@Base>
    263b:	0f 1f 44 00 00       	nopl   0x0(%rax,%rax,1)

0000000000002640 <putc@plt>:
    2640:	f3 0f 1e fa          	endbr64 
    2644:	f2 ff 25 65 b9 00 00 	bnd jmp *0xb965(%rip)        # dfb0 <putc@GLIBC_2.2.5>
    264b:	0f 1f 44 00 00       	nopl   0x0(%rax,%rax,1)

0000000000002650 <fwrite@plt>:
    2650:	f3 0f 1e fa          	endbr64 
    2654:	f2 ff 25 5d b9 00 00 	bnd jmp *0xb95d(%rip)        # dfb8 <fwrite@GLIBC_2.2.5>
    265b:	0f 1f 44 00 00       	nopl   0x0(%rax,%rax,1)

Disassembly of section .text:

0000000000002660 <main>:
    2660:	f3 0f 1e fa          	endbr64 
    2664:	48 83 ec 08          	sub    $0x8,%rsp
    2668:	e8 93 49 00 00       	call   7000 <init_monitor>
    266d:	31 c0                	xor    %eax,%eax
    266f:	e8 5c 5f 00 00       	call   85d0 <engine_start>
    2674:	31 c0                	xor    %eax,%eax
    2676:	48 83 c4 08          	add    $0x8,%rsp
    267a:	e9 41 50 00 00       	jmp    76c0 <is_exit_status_bad>
    267f:	90                   	nop

0000000000002680 <_start>:
    2680:	f3 0f 1e fa          	endbr64 
    2684:	31 ed                	xor    %ebp,%ebp
    2686:	49 89 d1             	mov    %rdx,%r9
    2689:	5e                   	pop    %rsi
    268a:	48 89 e2             	mov    %rsp,%rdx
    268d:	48 83 e4 f0          	and    $0xfffffffffffffff0,%rsp
    2691:	50                   	push   %rax
    2692:	54                   	push   %rsp
    2693:	45 31 c0             	xor    %r8d,%r8d
    2696:	31 c9                	xor    %ecx,%ecx
    2698:	48 8d 3d c1 ff ff ff 	lea    -0x3f(%rip),%rdi        # 2660 <main>
    269f:	ff 15 23 b9 00 00    	call   *0xb923(%rip)        # dfc8 <__libc_start_main@GLIBC_2.34>
    26a5:	f4                   	hlt    
    26a6:	66 2e 0f 1f 84 00 00 	cs nopw 0x0(%rax,%rax,1)
    26ad:	00 00 00 

00000000000026b0 <deregister_tm_clones>:
    26b0:	48 8d 3d 91 ba 00 00 	lea    0xba91(%rip),%rdi        # e148 <__TMC_END__>
    26b7:	48 8d 05 8a ba 00 00 	lea    0xba8a(%rip),%rax        # e148 <__TMC_END__>
    26be:	48 39 f8             	cmp    %rdi,%rax
    26c1:	74 15                	je     26d8 <deregister_tm_clones+0x28>
    26c3:	48 8b 05 06 b9 00 00 	mov    0xb906(%rip),%rax        # dfd0 <_ITM_deregisterTMCloneTable@Base>
    26ca:	48 85 c0             	test   %rax,%rax
    26cd:	74 09                	je     26d8 <deregister_tm_clones+0x28>
    26cf:	ff e0                	jmp    *%rax
    26d1:	0f 1f 80 00 00 00 00 	nopl   0x0(%rax)
    26d8:	c3                   	ret    
    26d9:	0f 1f 80 00 00 00 00 	nopl   0x0(%rax)

00000000000026e0 <register_tm_clones>:
    26e0:	48 8d 3d 61 ba 00 00 	lea    0xba61(%rip),%rdi        # e148 <__TMC_END__>
    26e7:	48 8d 35 5a ba 00 00 	lea    0xba5a(%rip),%rsi        # e148 <__TMC_END__>
    26ee:	48 29 fe             	sub    %rdi,%rsi
    26f1:	48 89 f0             	mov    %rsi,%rax
    26f4:	48 c1 ee 3f          	shr    $0x3f,%rsi
    26f8:	48 c1 f8 03          	sar    $0x3,%rax
    26fc:	48 01 c6             	add    %rax,%rsi
    26ff:	48 d1 fe             	sar    %rsi
    2702:	74 14                	je     2718 <register_tm_clones+0x38>
    2704:	48 8b 05 d5 b8 00 00 	mov    0xb8d5(%rip),%rax        # dfe0 <_ITM_registerTMCloneTable@Base>
    270b:	48 85 c0             	test   %rax,%rax
    270e:	74 08                	je     2718 <register_tm_clones+0x38>
    2710:	ff e0                	jmp    *%rax
    2712:	66 0f 1f 44 00 00    	nopw   0x0(%rax,%rax,1)
    2718:	c3                   	ret    
    2719:	0f 1f 80 00 00 00 00 	nopl   0x0(%rax)

0000000000002720 <__do_global_dtors_aux>:
    2720:	f3 0f 1e fa          	endbr64 
    2724:	80 3d 1d c9 00 00 00 	cmpb   $0x0,0xc91d(%rip)        # f048 <completed.0>
    272b:	75 2b                	jne    2758 <__do_global_dtors_aux+0x38>
    272d:	55                   	push   %rbp
    272e:	48 83 3d 8a b8 00 00 	cmpq   $0x0,0xb88a(%rip)        # dfc0 <__cxa_finalize@GLIBC_2.2.5>
    2735:	00 
    2736:	48 89 e5             	mov    %rsp,%rbp
    2739:	74 0c                	je     2747 <__do_global_dtors_aux+0x27>
    273b:	48 8b 3d c6 b8 00 00 	mov    0xb8c6(%rip),%rdi        # e008 <__dso_handle>
    2742:	e8 f9 fb ff ff       	call   2340 <__cxa_finalize@plt>
    2747:	e8 64 ff ff ff       	call   26b0 <deregister_tm_clones>
    274c:	c6 05 f5 c8 00 00 01 	movb   $0x1,0xc8f5(%rip)        # f048 <completed.0>
    2753:	5d                   	pop    %rbp
    2754:	c3                   	ret    
    2755:	0f 1f 00             	nopl   (%rax)
    2758:	c3                   	ret    
    2759:	0f 1f 80 00 00 00 00 	nopl   0x0(%rax)

0000000000002760 <frame_dummy>:
    2760:	f3 0f 1e fa          	endbr64 
    2764:	e9 77 ff ff ff       	jmp    26e0 <register_tm_clones>
    2769:	0f 1f 80 00 00 00 00 	nopl   0x0(%rax)

0000000000002770 <device_update>:
    2770:	f3 0f 1e fa          	endbr64 
    2774:	53                   	push   %rbx
    2775:	48 83 ec 40          	sub    $0x40,%rsp
    2779:	64 48 8b 04 25 28 00 	mov    %fs:0x28,%rax
    2780:	00 00 
    2782:	48 89 44 24 38       	mov    %rax,0x38(%rsp)
    2787:	31 c0                	xor    %eax,%eax
    2789:	e8 a2 4e 00 00       	call   7630 <get_time>
    278e:	48 89 c2             	mov    %rax,%rdx
    2791:	48 2b 15 b8 c8 00 00 	sub    0xc8b8(%rip),%rdx        # f050 <last.0>
    2798:	48 81 fa 19 41 00 00 	cmp    $0x4119,%rdx
    279f:	77 1f                	ja     27c0 <device_update+0x50>
    27a1:	48 8b 44 24 38       	mov    0x38(%rsp),%rax
    27a6:	64 48 2b 04 25 28 00 	sub    %fs:0x28,%rax
    27ad:	00 00 
    27af:	75 69                	jne    281a <device_update+0xaa>
    27b1:	48 83 c4 40          	add    $0x40,%rsp
    27b5:	5b                   	pop    %rbx
    27b6:	c3                   	ret    
    27b7:	66 0f 1f 84 00 00 00 	nopw   0x0(%rax,%rax,1)
    27be:	00 00 
    27c0:	48 89 05 89 c8 00 00 	mov    %rax,0xc889(%rip)        # f050 <last.0>
    27c7:	31 c0                	xor    %eax,%eax
    27c9:	48 89 e3             	mov    %rsp,%rbx
    27cc:	e8 4f 08 00 00       	call   3020 <vga_update_screen>
    27d1:	eb 25                	jmp    27f8 <device_update+0x88>
    27d3:	0f 1f 44 00 00       	nopl   0x0(%rax,%rax,1)
    27d8:	8d 90 00 fd ff ff    	lea    -0x300(%rax),%edx
    27de:	83 fa 01             	cmp    $0x1,%edx
    27e1:	77 15                	ja     27f8 <device_update+0x88>
    27e3:	31 f6                	xor    %esi,%esi
    27e5:	0f b6 7c 24 10       	movzbl 0x10(%rsp),%edi
    27ea:	3d 00 03 00 00       	cmp    $0x300,%eax
    27ef:	40 0f 94 c6          	sete   %sil
    27f3:	e8 88 05 00 00       	call   2d80 <send_key>
    27f8:	48 89 df             	mov    %rbx,%rdi
    27fb:	e8 f0 fb ff ff       	call   23f0 <SDL_PollEvent@plt>
    2800:	85 c0                	test   %eax,%eax
    2802:	74 9d                	je     27a1 <device_update+0x31>
    2804:	8b 04 24             	mov    (%rsp),%eax
    2807:	3d 00 01 00 00       	cmp    $0x100,%eax
    280c:	75 ca                	jne    27d8 <device_update+0x68>
    280e:	c7 05 20 b9 00 00 04 	movl   $0x4,0xb920(%rip)        # e138 <nemu_state>
    2815:	00 00 00 
    2818:	eb de                	jmp    27f8 <device_update+0x88>
    281a:	e8 a1 fc ff ff       	call   24c0 <__stack_chk_fail@plt>
    281f:	90                   	nop

0000000000002820 <sdl_clear_event_queue>:
    2820:	f3 0f 1e fa          	endbr64 
    2824:	53                   	push   %rbx
    2825:	48 83 ec 40          	sub    $0x40,%rsp
    2829:	64 48 8b 04 25 28 00 	mov    %fs:0x28,%rax
    2830:	00 00 
    2832:	48 89 44 24 38       	mov    %rax,0x38(%rsp)
    2837:	31 c0                	xor    %eax,%eax
    2839:	48 89 e3             	mov    %rsp,%rbx
    283c:	0f 1f 40 00          	nopl   0x0(%rax)
    2840:	48 89 df             	mov    %rbx,%rdi
    2843:	e8 a8 fb ff ff       	call   23f0 <SDL_PollEvent@plt>
    2848:	85 c0                	test   %eax,%eax
    284a:	75 f4                	jne    2840 <sdl_clear_event_queue+0x20>
    284c:	48 8b 44 24 38       	mov    0x38(%rsp),%rax
    2851:	64 48 2b 04 25 28 00 	sub    %fs:0x28,%rax
    2858:	00 00 
    285a:	75 06                	jne    2862 <sdl_clear_event_queue+0x42>
    285c:	48 83 c4 40          	add    $0x40,%rsp
    2860:	5b                   	pop    %rbx
    2861:	c3                   	ret    
    2862:	e8 59 fc ff ff       	call   24c0 <__stack_chk_fail@plt>
    2867:	66 0f 1f 84 00 00 00 	nopw   0x0(%rax,%rax,1)
    286e:	00 00 

0000000000002870 <init_device>:
    2870:	f3 0f 1e fa          	endbr64 
    2874:	48 83 ec 08          	sub    $0x8,%rsp
    2878:	31 c0                	xor    %eax,%eax
    287a:	e8 b1 52 00 00       	call   7b30 <init_map>
    287f:	31 c0                	xor    %eax,%eax
    2881:	e8 5a 03 00 00       	call   2be0 <init_serial>
    2886:	31 c0                	xor    %eax,%eax
    2888:	e8 13 04 00 00       	call   2ca0 <init_timer>
    288d:	31 c0                	xor    %eax,%eax
    288f:	e8 0c 08 00 00       	call   30a0 <init_vga>
    2894:	31 c0                	xor    %eax,%eax
    2896:	e8 c5 05 00 00       	call   2e60 <init_i8042>
    289b:	31 c0                	xor    %eax,%eax
    289d:	e8 4e 09 00 00       	call   31f0 <init_audio>
    28a2:	31 c0                	xor    %eax,%eax
    28a4:	e8 a7 09 00 00       	call   3250 <init_disk>
    28a9:	31 c0                	xor    %eax,%eax
    28ab:	48 83 c4 08          	add    $0x8,%rsp
    28af:	e9 ac 00 00 00       	jmp    2960 <init_alarm>
    28b4:	66 2e 0f 1f 84 00 00 	cs nopw 0x0(%rax,%rax,1)
    28bb:	00 00 00 
    28be:	66 90                	xchg   %ax,%ax

00000000000028c0 <alarm_sig_handler>:
    28c0:	f3 0f 1e fa          	endbr64 
    28c4:	8b 05 96 c7 00 00    	mov    0xc796(%rip),%eax        # f060 <idx>
    28ca:	85 c0                	test   %eax,%eax
    28cc:	7e 32                	jle    2900 <alarm_sig_handler+0x40>
    28ce:	55                   	push   %rbp
    28cf:	48 8d 2d aa c7 00 00 	lea    0xc7aa(%rip),%rbp        # f080 <handler>
    28d6:	53                   	push   %rbx
    28d7:	31 db                	xor    %ebx,%ebx
    28d9:	48 83 ec 08          	sub    $0x8,%rsp
    28dd:	0f 1f 00             	nopl   (%rax)
    28e0:	31 c0                	xor    %eax,%eax
    28e2:	ff 54 dd 00          	call   *0x0(%rbp,%rbx,8)
    28e6:	48 83 c3 01          	add    $0x1,%rbx
    28ea:	39 1d 70 c7 00 00    	cmp    %ebx,0xc770(%rip)        # f060 <idx>
    28f0:	7f ee                	jg     28e0 <alarm_sig_handler+0x20>
    28f2:	48 83 c4 08          	add    $0x8,%rsp
    28f6:	5b                   	pop    %rbx
    28f7:	5d                   	pop    %rbp
    28f8:	c3                   	ret    
    28f9:	0f 1f 80 00 00 00 00 	nopl   0x0(%rax)
    2900:	c3                   	ret    
    2901:	66 66 2e 0f 1f 84 00 	data16 cs nopw 0x0(%rax,%rax,1)
    2908:	00 00 00 00 
    290c:	0f 1f 40 00          	nopl   0x0(%rax)

0000000000002910 <add_alarm_handle>:
    2910:	f3 0f 1e fa          	endbr64 
    2914:	48 63 05 45 c7 00 00 	movslq 0xc745(%rip),%rax        # f060 <idx>
    291b:	83 f8 07             	cmp    $0x7,%eax
    291e:	7f 15                	jg     2935 <add_alarm_handle+0x25>
    2920:	8d 50 01             	lea    0x1(%rax),%edx
    2923:	89 15 37 c7 00 00    	mov    %edx,0xc737(%rip)        # f060 <idx>
    2929:	48 8d 15 50 c7 00 00 	lea    0xc750(%rip),%rdx        # f080 <handler>
    2930:	48 89 3c c2          	mov    %rdi,(%rdx,%rax,8)
    2934:	c3                   	ret    
    2935:	50                   	push   %rax
    2936:	48 8d 0d 53 67 00 00 	lea    0x6753(%rip),%rcx        # 9090 <__PRETTY_FUNCTION__.1>
    293d:	ba 1b 00 00 00       	mov    $0x1b,%edx
    2942:	48 8d 35 bb 66 00 00 	lea    0x66bb(%rip),%rsi        # 9004 <_IO_stdin_used+0x4>
    2949:	48 8d 3d c7 66 00 00 	lea    0x66c7(%rip),%rdi        # 9017 <_IO_stdin_used+0x17>
    2950:	e8 ab fa ff ff       	call   2400 <__assert_fail@plt>
    2955:	66 66 2e 0f 1f 84 00 	data16 cs nopw 0x0(%rax,%rax,1)
    295c:	00 00 00 00 

0000000000002960 <init_alarm>:
    2960:	f3 0f 1e fa          	endbr64 
    2964:	48 81 ec c8 00 00 00 	sub    $0xc8,%rsp
    296b:	b9 12 00 00 00       	mov    $0x12,%ecx
    2970:	64 48 8b 04 25 28 00 	mov    %fs:0x28,%rax
    2977:	00 00 
    2979:	48 89 84 24 b8 00 00 	mov    %rax,0xb8(%rsp)
    2980:	00 
    2981:	31 c0                	xor    %eax,%eax
    2983:	48 8d 54 24 28       	lea    0x28(%rsp),%rdx
    2988:	48 8d 74 24 20       	lea    0x20(%rsp),%rsi
    298d:	48 89 d7             	mov    %rdx,%rdi
    2990:	31 d2                	xor    %edx,%edx
    2992:	f3 48 ab             	rep stos %rax,%es:(%rdi)
    2995:	48 8d 05 24 ff ff ff 	lea    -0xdc(%rip),%rax        # 28c0 <alarm_sig_handler>
    299c:	bf 1a 00 00 00       	mov    $0x1a,%edi
    29a1:	48 89 44 24 20       	mov    %rax,0x20(%rsp)
    29a6:	e8 a5 fb ff ff       	call   2550 <sigaction@plt>
    29ab:	85 c0                	test   %eax,%eax
    29ad:	75 4a                	jne    29f9 <init_alarm+0x99>
    29af:	48 c7 44 24 10 00 00 	movq   $0x0,0x10(%rsp)
    29b6:	00 00 
    29b8:	31 d2                	xor    %edx,%edx
    29ba:	48 89 e6             	mov    %rsp,%rsi
    29bd:	bf 01 00 00 00       	mov    $0x1,%edi
    29c2:	48 c7 44 24 18 1a 41 	movq   $0x411a,0x18(%rsp)
    29c9:	00 00 
    29cb:	66 0f 6f 44 24 10    	movdqa 0x10(%rsp),%xmm0
    29d1:	0f 29 04 24          	movaps %xmm0,(%rsp)
    29d5:	e8 d6 fb ff ff       	call   25b0 <setitimer@plt>
    29da:	85 c0                	test   %eax,%eax
    29dc:	75 7b                	jne    2a59 <init_alarm+0xf9>
    29de:	48 8b 84 24 b8 00 00 	mov    0xb8(%rsp),%rax
    29e5:	00 
    29e6:	64 48 2b 04 25 28 00 	sub    %fs:0x28,%rax
    29ed:	00 00 
    29ef:	75 63                	jne    2a54 <init_alarm+0xf4>
    29f1:	48 81 c4 c8 00 00 00 	add    $0xc8,%rsp
    29f8:	c3                   	ret    
    29f9:	48 8b 3d 00 c6 00 00 	mov    0xc600(%rip),%rdi        # f000 <stdout@GLIBC_2.2.5>
    2a00:	e8 fb fa ff ff       	call   2500 <fflush@plt>
    2a05:	ba 26 00 00 00       	mov    $0x26,%edx
    2a0a:	48 8b 0d 2f c6 00 00 	mov    0xc62f(%rip),%rcx        # f040 <stderr@GLIBC_2.2.5>
    2a11:	be 01 00 00 00       	mov    $0x1,%esi
    2a16:	48 8d 3d 33 66 00 00 	lea    0x6633(%rip),%rdi        # 9050 <_IO_stdin_used+0x50>
    2a1d:	e8 2e fc ff ff       	call   2650 <fwrite@plt>
    2a22:	48 8b 3d 3f 2b 01 00 	mov    0x12b3f(%rip),%rdi        # 15568 <log_fp>
    2a29:	e8 d2 fa ff ff       	call   2500 <fflush@plt>
    2a2e:	31 c0                	xor    %eax,%eax
    2a30:	e8 9b 20 00 00       	call   4ad0 <assert_fail_msg>
    2a35:	48 8d 0d 44 66 00 00 	lea    0x6644(%rip),%rcx        # 9080 <__PRETTY_FUNCTION__.0>
    2a3c:	ba 2b 00 00 00       	mov    $0x2b,%edx
    2a41:	48 8d 35 bc 65 00 00 	lea    0x65bc(%rip),%rsi        # 9004 <_IO_stdin_used+0x4>
    2a48:	48 8d 3d da 65 00 00 	lea    0x65da(%rip),%rdi        # 9029 <_IO_stdin_used+0x29>
    2a4f:	e8 ac f9 ff ff       	call   2400 <__assert_fail@plt>
    2a54:	e8 67 fa ff ff       	call   24c0 <__stack_chk_fail@plt>
    2a59:	48 8b 3d a0 c5 00 00 	mov    0xc5a0(%rip),%rdi        # f000 <stdout@GLIBC_2.2.5>
    2a60:	e8 9b fa ff ff       	call   2500 <fflush@plt>
    2a65:	ba 1d 00 00 00       	mov    $0x1d,%edx
    2a6a:	48 8b 0d cf c5 00 00 	mov    0xc5cf(%rip),%rcx        # f040 <stderr@GLIBC_2.2.5>
    2a71:	be 01 00 00 00       	mov    $0x1,%esi
    2a76:	48 8d 3d b5 65 00 00 	lea    0x65b5(%rip),%rdi        # 9032 <_IO_stdin_used+0x32>
    2a7d:	e8 ce fb ff ff       	call   2650 <fwrite@plt>
    2a82:	48 8b 3d df 2a 01 00 	mov    0x12adf(%rip),%rdi        # 15568 <log_fp>
    2a89:	e8 72 fa ff ff       	call   2500 <fflush@plt>
    2a8e:	31 c0                	xor    %eax,%eax
    2a90:	e8 3b 20 00 00       	call   4ad0 <assert_fail_msg>
    2a95:	48 8d 0d e4 65 00 00 	lea    0x65e4(%rip),%rcx        # 9080 <__PRETTY_FUNCTION__.0>
    2a9c:	ba 32 00 00 00       	mov    $0x32,%edx
    2aa1:	48 8d 35 5c 65 00 00 	lea    0x655c(%rip),%rsi        # 9004 <_IO_stdin_used+0x4>
    2aa8:	48 8d 3d 7a 65 00 00 	lea    0x657a(%rip),%rdi        # 9029 <_IO_stdin_used+0x29>
    2aaf:	e8 4c f9 ff ff       	call   2400 <__assert_fail@plt>
    2ab4:	66 2e 0f 1f 84 00 00 	cs nopw 0x0(%rax,%rax,1)
    2abb:	00 00 00 
    2abe:	66 90                	xchg   %ax,%ax

0000000000002ac0 <dev_raise_intr>:
    2ac0:	f3 0f 1e fa          	endbr64 
    2ac4:	c3                   	ret    
    2ac5:	66 2e 0f 1f 84 00 00 	cs nopw 0x0(%rax,%rax,1)
    2acc:	00 00 00 
    2acf:	90                   	nop

0000000000002ad0 <serial_io_handler>:
    2ad0:	f3 0f 1e fa          	endbr64 
    2ad4:	41 54                	push   %r12
    2ad6:	83 fe 01             	cmp    $0x1,%esi
    2ad9:	75 27                	jne    2b02 <serial_io_handler+0x32>
    2adb:	41 89 fc             	mov    %edi,%r12d
    2ade:	85 ff                	test   %edi,%edi
    2ae0:	0f 85 96 00 00 00    	jne    2b7c <serial_io_handler+0xac>
    2ae6:	84 d2                	test   %dl,%dl
    2ae8:	74 37                	je     2b21 <serial_io_handler+0x51>
    2aea:	48 8b 05 cf c5 00 00 	mov    0xc5cf(%rip),%rax        # f0c0 <serial_base>
    2af1:	48 8b 35 48 c5 00 00 	mov    0xc548(%rip),%rsi        # f040 <stderr@GLIBC_2.2.5>
    2af8:	41 5c                	pop    %r12
    2afa:	0f be 38             	movsbl (%rax),%edi
    2afd:	e9 3e fb ff ff       	jmp    2640 <putc@plt>
    2b02:	48 8d 0d 07 66 00 00 	lea    0x6607(%rip),%rcx        # 9110 <__PRETTY_FUNCTION__.0>
    2b09:	ba 21 00 00 00       	mov    $0x21,%edx
    2b0e:	48 8d 35 8c 65 00 00 	lea    0x658c(%rip),%rsi        # 90a1 <__PRETTY_FUNCTION__.1+0x11>
    2b15:	48 8d 3d 99 65 00 00 	lea    0x6599(%rip),%rdi        # 90b5 <__PRETTY_FUNCTION__.1+0x25>
    2b1c:	e8 df f8 ff ff       	call   2400 <__assert_fail@plt>
    2b21:	48 8b 3d d8 c4 00 00 	mov    0xc4d8(%rip),%rdi        # f000 <stdout@GLIBC_2.2.5>
    2b28:	e8 d3 f9 ff ff       	call   2500 <fflush@plt>
    2b2d:	ba 1f 00 00 00       	mov    $0x1f,%edx
    2b32:	48 8b 0d 07 c5 00 00 	mov    0xc507(%rip),%rcx        # f040 <stderr@GLIBC_2.2.5>
    2b39:	be 01 00 00 00       	mov    $0x1,%esi
    2b3e:	48 8d 3d 83 65 00 00 	lea    0x6583(%rip),%rdi        # 90c8 <__PRETTY_FUNCTION__.1+0x38>
    2b45:	e8 06 fb ff ff       	call   2650 <fwrite@plt>
    2b4a:	48 8b 3d 17 2a 01 00 	mov    0x12a17(%rip),%rdi        # 15568 <log_fp>
    2b51:	e8 aa f9 ff ff       	call   2500 <fflush@plt>
    2b56:	31 c0                	xor    %eax,%eax
    2b58:	e8 73 1f 00 00       	call   4ad0 <assert_fail_msg>
    2b5d:	48 8d 0d ac 65 00 00 	lea    0x65ac(%rip),%rcx        # 9110 <__PRETTY_FUNCTION__.0>
    2b64:	ba 27 00 00 00       	mov    $0x27,%edx
    2b69:	48 8d 35 31 65 00 00 	lea    0x6531(%rip),%rsi        # 90a1 <__PRETTY_FUNCTION__.1+0x11>
    2b70:	48 8d 3d b9 64 00 00 	lea    0x64b9(%rip),%rdi        # 9030 <_IO_stdin_used+0x30>
    2b77:	e8 84 f8 ff ff       	call   2400 <__assert_fail@plt>
    2b7c:	48 8b 3d 7d c4 00 00 	mov    0xc47d(%rip),%rdi        # f000 <stdout@GLIBC_2.2.5>
    2b83:	e8 78 f9 ff ff       	call   2500 <fflush@plt>
    2b88:	44 89 e1             	mov    %r12d,%ecx
    2b8b:	be 01 00 00 00       	mov    $0x1,%esi
    2b90:	31 c0                	xor    %eax,%eax
    2b92:	48 8b 3d a7 c4 00 00 	mov    0xc4a7(%rip),%rdi        # f040 <stderr@GLIBC_2.2.5>
    2b99:	48 8d 15 48 65 00 00 	lea    0x6548(%rip),%rdx        # 90e8 <__PRETTY_FUNCTION__.1+0x58>
    2ba0:	e8 5b fa ff ff       	call   2600 <__fprintf_chk@plt>
    2ba5:	48 8b 3d bc 29 01 00 	mov    0x129bc(%rip),%rdi        # 15568 <log_fp>
    2bac:	e8 4f f9 ff ff       	call   2500 <fflush@plt>
    2bb1:	31 c0                	xor    %eax,%eax
    2bb3:	e8 18 1f 00 00       	call   4ad0 <assert_fail_msg>
    2bb8:	48 8d 0d 51 65 00 00 	lea    0x6551(%rip),%rcx        # 9110 <__PRETTY_FUNCTION__.0>
    2bbf:	ba 29 00 00 00       	mov    $0x29,%edx
    2bc4:	48 8d 35 d6 64 00 00 	lea    0x64d6(%rip),%rsi        # 90a1 <__PRETTY_FUNCTION__.1+0x11>
    2bcb:	48 8d 3d 5e 64 00 00 	lea    0x645e(%rip),%rdi        # 9030 <_IO_stdin_used+0x30>
    2bd2:	e8 29 f8 ff ff       	call   2400 <__assert_fail@plt>
    2bd7:	66 0f 1f 84 00 00 00 	nopw   0x0(%rax,%rax,1)
    2bde:	00 00 

0000000000002be0 <init_serial>:
    2be0:	f3 0f 1e fa          	endbr64 
    2be4:	48 83 ec 08          	sub    $0x8,%rsp
    2be8:	bf 08 00 00 00       	mov    $0x8,%edi
    2bed:	e8 de 4e 00 00       	call   7ad0 <new_space>
    2bf2:	b9 08 00 00 00       	mov    $0x8,%ecx
    2bf7:	4c 8d 05 d2 fe ff ff 	lea    -0x12e(%rip),%r8        # 2ad0 <serial_io_handler>
    2bfe:	be f8 03 00 a0       	mov    $0xa00003f8,%esi
    2c03:	48 89 05 b6 c4 00 00 	mov    %rax,0xc4b6(%rip)        # f0c0 <serial_base>
    2c0a:	48 89 c2             	mov    %rax,%rdx
    2c0d:	48 83 c4 08          	add    $0x8,%rsp
    2c11:	48 8d 3d a6 64 00 00 	lea    0x64a6(%rip),%rdi        # 90be <__PRETTY_FUNCTION__.1+0x2e>
    2c18:	e9 e3 53 00 00       	jmp    8000 <add_mmio_map>
    2c1d:	0f 1f 00             	nopl   (%rax)

0000000000002c20 <timer_intr>:
    2c20:	f3 0f 1e fa          	endbr64 
    2c24:	8b 05 0e b5 00 00    	mov    0xb50e(%rip),%eax        # e138 <nemu_state>
    2c2a:	85 c0                	test   %eax,%eax
    2c2c:	74 02                	je     2c30 <timer_intr+0x10>
    2c2e:	c3                   	ret    
    2c2f:	90                   	nop
    2c30:	31 c0                	xor    %eax,%eax
    2c32:	e9 89 fe ff ff       	jmp    2ac0 <dev_raise_intr>
    2c37:	66 0f 1f 84 00 00 00 	nopw   0x0(%rax,%rax,1)
    2c3e:	00 00 

0000000000002c40 <rtc_io_handler>:
    2c40:	f3 0f 1e fa          	endbr64 
    2c44:	48 83 ec 08          	sub    $0x8,%rsp
    2c48:	83 e7 fb             	and    $0xfffffffb,%edi
    2c4b:	75 29                	jne    2c76 <rtc_io_handler+0x36>
    2c4d:	84 d2                	test   %dl,%dl
    2c4f:	74 0f                	je     2c60 <rtc_io_handler+0x20>
    2c51:	48 83 c4 08          	add    $0x8,%rsp
    2c55:	c3                   	ret    
    2c56:	66 2e 0f 1f 84 00 00 	cs nopw 0x0(%rax,%rax,1)
    2c5d:	00 00 00 
    2c60:	31 c0                	xor    %eax,%eax
    2c62:	e8 c9 49 00 00       	call   7630 <get_time>
    2c67:	48 8b 15 5a c4 00 00 	mov    0xc45a(%rip),%rdx        # f0c8 <rtc_port_base>
    2c6e:	48 89 02             	mov    %rax,(%rdx)
    2c71:	48 83 c4 08          	add    $0x8,%rsp
    2c75:	c3                   	ret    
    2c76:	48 8d 0d db 64 00 00 	lea    0x64db(%rip),%rcx        # 9158 <__PRETTY_FUNCTION__.0>
    2c7d:	ba 17 00 00 00       	mov    $0x17,%edx
    2c82:	48 8d 35 99 64 00 00 	lea    0x6499(%rip),%rsi        # 9122 <__PRETTY_FUNCTION__.0+0x12>
    2c89:	48 8d 3d a5 64 00 00 	lea    0x64a5(%rip),%rdi        # 9135 <__PRETTY_FUNCTION__.0+0x25>
    2c90:	e8 6b f7 ff ff       	call   2400 <__assert_fail@plt>
    2c95:	66 66 2e 0f 1f 84 00 	data16 cs nopw 0x0(%rax,%rax,1)
    2c9c:	00 00 00 00 

0000000000002ca0 <init_timer>:
    2ca0:	f3 0f 1e fa          	endbr64 
    2ca4:	48 83 ec 08          	sub    $0x8,%rsp
    2ca8:	bf 08 00 00 00       	mov    $0x8,%edi
    2cad:	e8 1e 4e 00 00       	call   7ad0 <new_space>
    2cb2:	b9 08 00 00 00       	mov    $0x8,%ecx
    2cb7:	be 48 00 00 a0       	mov    $0xa0000048,%esi
    2cbc:	48 8d 3d 8d 64 00 00 	lea    0x648d(%rip),%rdi        # 9150 <__PRETTY_FUNCTION__.0+0x40>
    2cc3:	48 89 c2             	mov    %rax,%rdx
    2cc6:	4c 8d 05 73 ff ff ff 	lea    -0x8d(%rip),%r8        # 2c40 <rtc_io_handler>
    2ccd:	48 89 05 f4 c3 00 00 	mov    %rax,0xc3f4(%rip)        # f0c8 <rtc_port_base>
    2cd4:	e8 27 53 00 00       	call   8000 <add_mmio_map>
    2cd9:	48 8d 3d 40 ff ff ff 	lea    -0xc0(%rip),%rdi        # 2c20 <timer_intr>
    2ce0:	48 83 c4 08          	add    $0x8,%rsp
    2ce4:	e9 27 fc ff ff       	jmp    2910 <add_alarm_handle>
    2ce9:	0f 1f 80 00 00 00 00 	nopl   0x0(%rax)

0000000000002cf0 <i8042_data_io_handler>:
    2cf0:	f3 0f 1e fa          	endbr64 
    2cf4:	48 83 ec 08          	sub    $0x8,%rsp
    2cf8:	84 d2                	test   %dl,%dl
    2cfa:	75 43                	jne    2d3f <i8042_data_io_handler+0x4f>
    2cfc:	85 ff                	test   %edi,%edi
    2cfe:	75 5e                	jne    2d5e <i8042_data_io_handler+0x6e>
    2d00:	8b 05 e6 c3 00 00    	mov    0xc3e6(%rip),%eax        # f0ec <key_f>
    2d06:	3b 05 dc c3 00 00    	cmp    0xc3dc(%rip),%eax        # f0e8 <key_r>
    2d0c:	48 8b 0d cd c3 00 00 	mov    0xc3cd(%rip),%rcx        # f0e0 <i8042_data_port_base>
    2d13:	74 23                	je     2d38 <i8042_data_io_handler+0x48>
    2d15:	48 63 f0             	movslq %eax,%rsi
    2d18:	48 8d 15 e1 c3 00 00 	lea    0xc3e1(%rip),%rdx        # f100 <key_queue>
    2d1f:	83 c0 01             	add    $0x1,%eax
    2d22:	8b 3c b2             	mov    (%rdx,%rsi,4),%edi
    2d25:	99                   	cltd   
    2d26:	c1 ea 16             	shr    $0x16,%edx
    2d29:	01 d0                	add    %edx,%eax
    2d2b:	25 ff 03 00 00       	and    $0x3ff,%eax
    2d30:	29 d0                	sub    %edx,%eax
    2d32:	89 05 b4 c3 00 00    	mov    %eax,0xc3b4(%rip)        # f0ec <key_f>
    2d38:	89 39                	mov    %edi,(%rcx)
    2d3a:	48 83 c4 08          	add    $0x8,%rsp
    2d3e:	c3                   	ret    
    2d3f:	48 8d 0d 8a 64 00 00 	lea    0x648a(%rip),%rcx        # 91d0 <__PRETTY_FUNCTION__.0>
    2d46:	ba 5b 00 00 00       	mov    $0x5b,%edx
    2d4b:	48 8d 35 15 64 00 00 	lea    0x6415(%rip),%rsi        # 9167 <__PRETTY_FUNCTION__.0+0xf>
    2d52:	48 8d 3d 24 64 00 00 	lea    0x6424(%rip),%rdi        # 917d <__PRETTY_FUNCTION__.0+0x25>
    2d59:	e8 a2 f6 ff ff       	call   2400 <__assert_fail@plt>
    2d5e:	48 8d 0d 6b 64 00 00 	lea    0x646b(%rip),%rcx        # 91d0 <__PRETTY_FUNCTION__.0>
    2d65:	ba 5c 00 00 00       	mov    $0x5c,%edx
    2d6a:	48 8d 35 f6 63 00 00 	lea    0x63f6(%rip),%rsi        # 9167 <__PRETTY_FUNCTION__.0+0xf>
    2d71:	48 8d 3d 0f 64 00 00 	lea    0x640f(%rip),%rdi        # 9187 <__PRETTY_FUNCTION__.0+0x2f>
    2d78:	e8 83 f6 ff ff       	call   2400 <__assert_fail@plt>
    2d7d:	0f 1f 00             	nopl   (%rax)

0000000000002d80 <send_key>:
    2d80:	f3 0f 1e fa          	endbr64 
    2d84:	8b 05 ae b3 00 00    	mov    0xb3ae(%rip),%eax        # e138 <nemu_state>
    2d8a:	85 c0                	test   %eax,%eax
    2d8c:	75 4d                	jne    2ddb <send_key+0x5b>
    2d8e:	40 0f b6 ff          	movzbl %dil,%edi
    2d92:	48 8d 05 67 d3 00 00 	lea    0xd367(%rip),%rax        # 10100 <keymap>
    2d99:	8b 14 b8             	mov    (%rax,%rdi,4),%edx
    2d9c:	85 d2                	test   %edx,%edx
    2d9e:	74 3b                	je     2ddb <send_key+0x5b>
    2da0:	48 63 0d 41 c3 00 00 	movslq 0xc341(%rip),%rcx        # f0e8 <key_r>
    2da7:	40 0f b6 f6          	movzbl %sil,%esi
    2dab:	c1 e6 0f             	shl    $0xf,%esi
    2dae:	48 89 c8             	mov    %rcx,%rax
    2db1:	09 d6                	or     %edx,%esi
    2db3:	48 8d 15 46 c3 00 00 	lea    0xc346(%rip),%rdx        # f100 <key_queue>
    2dba:	83 c0 01             	add    $0x1,%eax
    2dbd:	89 34 8a             	mov    %esi,(%rdx,%rcx,4)
    2dc0:	99                   	cltd   
    2dc1:	c1 ea 16             	shr    $0x16,%edx
    2dc4:	01 d0                	add    %edx,%eax
    2dc6:	25 ff 03 00 00       	and    $0x3ff,%eax
    2dcb:	29 d0                	sub    %edx,%eax
    2dcd:	3b 05 19 c3 00 00    	cmp    0xc319(%rip),%eax        # f0ec <key_f>
    2dd3:	89 05 0f c3 00 00    	mov    %eax,0xc30f(%rip)        # f0e8 <key_r>
    2dd9:	74 05                	je     2de0 <send_key+0x60>
    2ddb:	c3                   	ret    
    2ddc:	0f 1f 40 00          	nopl   0x0(%rax)
    2de0:	48 83 ec 08          	sub    $0x8,%rsp
    2de4:	48 8b 3d 15 c2 00 00 	mov    0xc215(%rip),%rdi        # f000 <stdout@GLIBC_2.2.5>
    2deb:	e8 10 f7 ff ff       	call   2500 <fflush@plt>
    2df0:	ba 1f 00 00 00       	mov    $0x1f,%edx
    2df5:	48 8b 0d 44 c2 00 00 	mov    0xc244(%rip),%rcx        # f040 <stderr@GLIBC_2.2.5>
    2dfc:	be 01 00 00 00       	mov    $0x1,%esi
    2e01:	48 8d 3d a8 63 00 00 	lea    0x63a8(%rip),%rdi        # 91b0 <__PRETTY_FUNCTION__.0+0x58>
    2e08:	e8 43 f8 ff ff       	call   2650 <fwrite@plt>
    2e0d:	48 8b 3d 54 27 01 00 	mov    0x12754(%rip),%rdi        # 15568 <log_fp>
    2e14:	e8 e7 f6 ff ff       	call   2500 <fflush@plt>
    2e19:	31 c0                	xor    %eax,%eax
    2e1b:	e8 b0 1c 00 00       	call   4ad0 <assert_fail_msg>
    2e20:	8b 05 c6 c2 00 00    	mov    0xc2c6(%rip),%eax        # f0ec <key_f>
    2e26:	39 05 bc c2 00 00    	cmp    %eax,0xc2bc(%rip)        # f0e8 <key_r>
    2e2c:	74 05                	je     2e33 <send_key+0xb3>
    2e2e:	48 83 c4 08          	add    $0x8,%rsp
    2e32:	c3                   	ret    
    2e33:	48 8d 0d ae 63 00 00 	lea    0x63ae(%rip),%rcx        # 91e8 <__PRETTY_FUNCTION__.1>
    2e3a:	ba 3c 00 00 00       	mov    $0x3c,%edx
    2e3f:	48 8d 35 21 63 00 00 	lea    0x6321(%rip),%rsi        # 9167 <__PRETTY_FUNCTION__.0+0xf>
    2e46:	48 8d 3d 46 63 00 00 	lea    0x6346(%rip),%rdi        # 9193 <__PRETTY_FUNCTION__.0+0x3b>
    2e4d:	e8 ae f5 ff ff       	call   2400 <__assert_fail@plt>
    2e52:	66 66 2e 0f 1f 84 00 	data16 cs nopw 0x0(%rax,%rax,1)
    2e59:	00 00 00 00 
    2e5d:	0f 1f 00             	nopl   (%rax)

0000000000002e60 <init_i8042>:
    2e60:	f3 0f 1e fa          	endbr64 
    2e64:	48 83 ec 08          	sub    $0x8,%rsp
    2e68:	bf 04 00 00 00       	mov    $0x4,%edi
    2e6d:	e8 5e 4c 00 00       	call   7ad0 <new_space>
    2e72:	b9 04 00 00 00       	mov    $0x4,%ecx
    2e77:	4c 8d 05 72 fe ff ff 	lea    -0x18e(%rip),%r8        # 2cf0 <i8042_data_io_handler>
    2e7e:	be 60 00 00 a0       	mov    $0xa0000060,%esi
    2e83:	c7 00 00 00 00 00    	movl   $0x0,(%rax)
    2e89:	48 89 c2             	mov    %rax,%rdx
    2e8c:	48 8d 3d 0f 63 00 00 	lea    0x630f(%rip),%rdi        # 91a2 <__PRETTY_FUNCTION__.0+0x4a>
    2e93:	48 89 05 46 c2 00 00 	mov    %rax,0xc246(%rip)        # f0e0 <i8042_data_port_base>
    2e9a:	e8 61 51 00 00       	call   8000 <add_mmio_map>
    2e9f:	66 0f 6f 05 79 63 00 	movdqa 0x6379(%rip),%xmm0        # 9220 <__PRETTY_FUNCTION__.1+0x38>
    2ea6:	00 
    2ea7:	48 8b 05 4a 63 00 00 	mov    0x634a(%rip),%rax        # 91f8 <__PRETTY_FUNCTION__.1+0x10>
    2eae:	c7 05 5c d3 00 00 0d 	movl   $0xd,0xd35c(%rip)        # 10214 <keymap+0x114>
    2eb5:	00 00 00 
    2eb8:	c7 05 d2 d3 00 00 44 	movl   $0x44,0xd3d2(%rip)        # 10294 <keymap+0x194>
    2ebf:	00 00 00 
    2ec2:	0f 11 05 03 d3 00 00 	movups %xmm0,0xd303(%rip)        # 101cc <keymap+0xcc>
    2ec9:	66 0f 6f 05 5f 63 00 	movdqa 0x635f(%rip),%xmm0        # 9230 <__PRETTY_FUNCTION__.1+0x48>
    2ed0:	00 
    2ed1:	48 89 05 34 d3 00 00 	mov    %rax,0xd334(%rip)        # 1020c <keymap+0x10c>
    2ed8:	48 8b 05 21 63 00 00 	mov    0x6321(%rip),%rax        # 9200 <__PRETTY_FUNCTION__.1+0x18>
    2edf:	0f 11 05 f6 d2 00 00 	movups %xmm0,0xd2f6(%rip)        # 101dc <keymap+0xdc>
    2ee6:	66 0f 6f 05 52 63 00 	movdqa 0x6352(%rip),%xmm0        # 9240 <__PRETTY_FUNCTION__.1+0x58>
    2eed:	00 
    2eee:	48 89 05 cb d2 00 00 	mov    %rax,0xd2cb(%rip)        # 101c0 <keymap+0xc0>
    2ef5:	48 8b 05 0c 63 00 00 	mov    0x630c(%rip),%rax        # 9208 <__PRETTY_FUNCTION__.1+0x20>
    2efc:	0f 11 05 e9 d2 00 00 	movups %xmm0,0xd2e9(%rip)        # 101ec <keymap+0xec>
    2f03:	66 0f 6f 05 45 63 00 	movdqa 0x6345(%rip),%xmm0        # 9250 <__PRETTY_FUNCTION__.1+0x68>
    2f0a:	00 
    2f0b:	48 89 05 6e d5 00 00 	mov    %rax,0xd56e(%rip)        # 10480 <keymap+0x380>
    2f12:	0f 11 05 e3 d2 00 00 	movups %xmm0,0xd2e3(%rip)        # 101fc <keymap+0xfc>
    2f19:	66 0f 6f 05 3f 63 00 	movdqa 0x633f(%rip),%xmm0        # 9260 <__PRETTY_FUNCTION__.1+0x78>
    2f20:	00 
    2f21:	c7 05 5d d5 00 00 45 	movl   $0x45,0xd55d(%rip)        # 10488 <keymap+0x388>
    2f28:	00 00 00 
    2f2b:	0f 29 05 de d1 00 00 	movaps %xmm0,0xd1de(%rip)        # 10110 <keymap+0x10>
    2f32:	66 0f 6f 05 36 63 00 	movdqa 0x6336(%rip),%xmm0        # 9270 <__PRETTY_FUNCTION__.1+0x88>
    2f39:	00 
    2f3a:	0f 29 05 df d1 00 00 	movaps %xmm0,0xd1df(%rip)        # 10120 <keymap+0x20>
    2f41:	66 0f 6f 05 37 63 00 	movdqa 0x6337(%rip),%xmm0        # 9280 <__PRETTY_FUNCTION__.1+0x98>
    2f48:	00 
    2f49:	0f 29 05 e0 d1 00 00 	movaps %xmm0,0xd1e0(%rip)        # 10130 <keymap+0x30>
    2f50:	66 0f 6f 05 38 63 00 	movdqa 0x6338(%rip),%xmm0        # 9290 <__PRETTY_FUNCTION__.1+0xa8>
    2f57:	00 
    2f58:	0f 29 05 e1 d1 00 00 	movaps %xmm0,0xd1e1(%rip)        # 10140 <keymap+0x40>
    2f5f:	66 0f 6f 05 39 63 00 	movdqa 0x6339(%rip),%xmm0        # 92a0 <__PRETTY_FUNCTION__.1+0xb8>
    2f66:	00 
    2f67:	0f 29 05 e2 d1 00 00 	movaps %xmm0,0xd1e2(%rip)        # 10150 <keymap+0x50>
    2f6e:	66 0f 6f 05 3a 63 00 	movdqa 0x633a(%rip),%xmm0        # 92b0 <__PRETTY_FUNCTION__.1+0xc8>
    2f75:	00 
    2f76:	0f 29 05 e3 d1 00 00 	movaps %xmm0,0xd1e3(%rip)        # 10160 <keymap+0x60>
    2f7d:	66 0f 6f 05 3b 63 00 	movdqa 0x633b(%rip),%xmm0        # 92c0 <__PRETTY_FUNCTION__.1+0xd8>
    2f84:	00 
    2f85:	0f 29 05 e4 d1 00 00 	movaps %xmm0,0xd1e4(%rip)        # 10170 <keymap+0x70>
    2f8c:	66 0f 6f 05 3c 63 00 	movdqa 0x633c(%rip),%xmm0        # 92d0 <__PRETTY_FUNCTION__.1+0xe8>
    2f93:	00 
    2f94:	0f 29 05 e5 d1 00 00 	movaps %xmm0,0xd1e5(%rip)        # 10180 <keymap+0x80>
    2f9b:	66 0f 6f 05 3d 63 00 	movdqa 0x633d(%rip),%xmm0        # 92e0 <__PRETTY_FUNCTION__.1+0xf8>
    2fa2:	00 
    2fa3:	48 8b 05 66 62 00 00 	mov    0x6266(%rip),%rax        # 9210 <__PRETTY_FUNCTION__.1+0x28>
    2faa:	c7 05 e4 d4 00 00 47 	movl   $0x47,0xd4e4(%rip)        # 10498 <keymap+0x398>
    2fb1:	00 00 00 
    2fb4:	0f 29 05 d5 d1 00 00 	movaps %xmm0,0xd1d5(%rip)        # 10190 <keymap+0x90>
    2fbb:	66 0f 6f 05 2d 63 00 	movdqa 0x632d(%rip),%xmm0        # 92f0 <__PRETTY_FUNCTION__.1+0x108>
    2fc2:	00 
    2fc3:	48 89 05 c6 d4 00 00 	mov    %rax,0xd4c6(%rip)        # 10490 <keymap+0x390>
    2fca:	48 8b 05 47 62 00 00 	mov    0x6247(%rip),%rax        # 9218 <__PRETTY_FUNCTION__.1+0x30>
    2fd1:	0f 29 05 c8 d1 00 00 	movaps %xmm0,0xd1c8(%rip)        # 101a0 <keymap+0xa0>
    2fd8:	66 0f 6f 05 20 63 00 	movdqa 0x6320(%rip),%xmm0        # 9300 <__PRETTY_FUNCTION__.1+0x118>
    2fdf:	00 
    2fe0:	48 89 05 5d d2 00 00 	mov    %rax,0xd25d(%rip)        # 10244 <keymap+0x144>
    2fe7:	0f 29 05 c2 d1 00 00 	movaps %xmm0,0xd1c2(%rip)        # 101b0 <keymap+0xb0>
    2fee:	66 0f 6f 05 1a 63 00 	movdqa 0x631a(%rip),%xmm0        # 9310 <__PRETTY_FUNCTION__.1+0x128>
    2ff5:	00 
    2ff6:	0f 11 05 27 d2 00 00 	movups %xmm0,0xd227(%rip)        # 10224 <keymap+0x124>
    2ffd:	66 0f 6f 05 1b 63 00 	movdqa 0x631b(%rip),%xmm0        # 9320 <__PRETTY_FUNCTION__.1+0x138>
    3004:	00 
    3005:	0f 11 05 28 d2 00 00 	movups %xmm0,0xd228(%rip)        # 10234 <keymap+0x134>
    300c:	48 83 c4 08          	add    $0x8,%rsp
    3010:	c3                   	ret    
    3011:	66 2e 0f 1f 84 00 00 	cs nopw 0x0(%rax,%rax,1)
    3018:	00 00 00 
    301b:	0f 1f 44 00 00       	nopl   0x0(%rax,%rax,1)

0000000000003020 <vga_update_screen>:
    3020:	f3 0f 1e fa          	endbr64 
    3024:	48 8b 05 e5 d4 00 00 	mov    0xd4e5(%rip),%rax        # 10510 <vgactl_port_base>
    302b:	8b 40 04             	mov    0x4(%rax),%eax
    302e:	85 c0                	test   %eax,%eax
    3030:	75 06                	jne    3038 <vga_update_screen+0x18>
    3032:	c3                   	ret    
    3033:	0f 1f 44 00 00       	nopl   0x0(%rax,%rax,1)
    3038:	48 83 ec 08          	sub    $0x8,%rsp
    303c:	48 8b 15 d5 d4 00 00 	mov    0xd4d5(%rip),%rdx        # 10518 <vmem>
    3043:	48 8b 3d b6 d4 00 00 	mov    0xd4b6(%rip),%rdi        # 10500 <texture>
    304a:	31 f6                	xor    %esi,%esi
    304c:	b9 40 06 00 00       	mov    $0x640,%ecx
    3051:	e8 ba f3 ff ff       	call   2410 <SDL_UpdateTexture@plt>
    3056:	48 8b 3d ab d4 00 00 	mov    0xd4ab(%rip),%rdi        # 10508 <renderer>
    305d:	e8 0e f4 ff ff       	call   2470 <SDL_RenderClear@plt>
    3062:	48 8b 35 97 d4 00 00 	mov    0xd497(%rip),%rsi        # 10500 <texture>
    3069:	31 c9                	xor    %ecx,%ecx
    306b:	31 d2                	xor    %edx,%edx
    306d:	48 8b 3d 94 d4 00 00 	mov    0xd494(%rip),%rdi        # 10508 <renderer>
    3074:	e8 57 f4 ff ff       	call   24d0 <SDL_RenderCopy@plt>
    3079:	48 8b 3d 88 d4 00 00 	mov    0xd488(%rip),%rdi        # 10508 <renderer>
    3080:	e8 eb f2 ff ff       	call   2370 <SDL_RenderPresent@plt>
    3085:	48 8b 05 84 d4 00 00 	mov    0xd484(%rip),%rax        # 10510 <vgactl_port_base>
    308c:	c7 40 04 00 00 00 00 	movl   $0x0,0x4(%rax)
    3093:	48 83 c4 08          	add    $0x8,%rsp
    3097:	c3                   	ret    
    3098:	0f 1f 84 00 00 00 00 	nopl   0x0(%rax,%rax,1)
    309f:	00 

00000000000030a0 <init_vga>:
    30a0:	f3 0f 1e fa          	endbr64 
    30a4:	55                   	push   %rbp
    30a5:	bf 08 00 00 00       	mov    $0x8,%edi
    30aa:	48 81 ec a0 00 00 00 	sub    $0xa0,%rsp
    30b1:	64 48 8b 04 25 28 00 	mov    %fs:0x28,%rax
    30b8:	00 00 
    30ba:	48 89 84 24 98 00 00 	mov    %rax,0x98(%rsp)
    30c1:	00 
    30c2:	31 c0                	xor    %eax,%eax
    30c4:	48 8d 6c 24 10       	lea    0x10(%rsp),%rbp
    30c9:	e8 02 4a 00 00       	call   7ad0 <new_space>
    30ce:	45 31 c0             	xor    %r8d,%r8d
    30d1:	b9 08 00 00 00       	mov    $0x8,%ecx
    30d6:	be 00 01 00 a0       	mov    $0xa0000100,%esi
    30db:	c7 00 2c 01 90 01    	movl   $0x190012c,(%rax)
    30e1:	48 89 c2             	mov    %rax,%rdx
    30e4:	48 8d 3d 45 62 00 00 	lea    0x6245(%rip),%rdi        # 9330 <__PRETTY_FUNCTION__.1+0x148>
    30eb:	48 89 05 1e d4 00 00 	mov    %rax,0xd41e(%rip)        # 10510 <vgactl_port_base>
    30f2:	e8 09 4f 00 00       	call   8000 <add_mmio_map>
    30f7:	bf 00 53 07 00       	mov    $0x75300,%edi
    30fc:	e8 cf 49 00 00       	call   7ad0 <new_space>
    3101:	45 31 c0             	xor    %r8d,%r8d
    3104:	b9 00 53 07 00       	mov    $0x75300,%ecx
    3109:	be 00 00 00 a1       	mov    $0xa1000000,%esi
    310e:	48 89 c2             	mov    %rax,%rdx
    3111:	48 8d 3d 1f 62 00 00 	lea    0x621f(%rip),%rdi        # 9337 <__PRETTY_FUNCTION__.1+0x14f>
    3118:	48 89 05 f9 d3 00 00 	mov    %rax,0xd3f9(%rip)        # 10518 <vmem>
    311f:	e8 dc 4e 00 00       	call   8000 <add_mmio_map>
    3124:	ba 80 00 00 00       	mov    $0x80,%edx
    3129:	48 89 ef             	mov    %rbp,%rdi
    312c:	31 c0                	xor    %eax,%eax
    312e:	4c 8d 05 07 62 00 00 	lea    0x6207(%rip),%r8        # 933c <__PRETTY_FUNCTION__.1+0x154>
    3135:	48 8d 0d 0d 62 00 00 	lea    0x620d(%rip),%rcx        # 9349 <__PRETTY_FUNCTION__.1+0x161>
    313c:	be 01 00 00 00       	mov    $0x1,%esi
    3141:	48 c7 44 24 08 00 00 	movq   $0x0,0x8(%rsp)
    3148:	00 00 
    314a:	e8 91 f2 ff ff       	call   23e0 <__sprintf_chk@plt>
    314f:	bf 20 00 00 00       	mov    $0x20,%edi
    3154:	e8 d7 f2 ff ff       	call   2430 <SDL_Init@plt>
    3159:	48 8d 4c 24 08       	lea    0x8(%rsp),%rcx
    315e:	31 d2                	xor    %edx,%edx
    3160:	4c 8d 05 a1 d3 00 00 	lea    0xd3a1(%rip),%r8        # 10508 <renderer>
    3167:	be 58 02 00 00       	mov    $0x258,%esi
    316c:	bf 20 03 00 00       	mov    $0x320,%edi
    3171:	e8 1a f2 ff ff       	call   2390 <SDL_CreateWindowAndRenderer@plt>
    3176:	48 8b 7c 24 08       	mov    0x8(%rsp),%rdi
    317b:	48 89 ee             	mov    %rbp,%rsi
    317e:	e8 9d f4 ff ff       	call   2620 <SDL_SetWindowTitle@plt>
    3183:	48 8b 3d 7e d3 00 00 	mov    0xd37e(%rip),%rdi        # 10508 <renderer>
    318a:	41 b8 2c 01 00 00    	mov    $0x12c,%r8d
    3190:	31 d2                	xor    %edx,%edx
    3192:	b9 90 01 00 00       	mov    $0x190,%ecx
    3197:	be 04 20 36 16       	mov    $0x16362004,%esi
    319c:	e8 8f f4 ff ff       	call   2630 <SDL_CreateTexture@plt>
    31a1:	48 8b 3d 70 d3 00 00 	mov    0xd370(%rip),%rdi        # 10518 <vmem>
    31a8:	48 89 05 51 d3 00 00 	mov    %rax,0xd351(%rip)        # 10500 <texture>
    31af:	48 8b 84 24 98 00 00 	mov    0x98(%rsp),%rax
    31b6:	00 
    31b7:	64 48 2b 04 25 28 00 	sub    %fs:0x28,%rax
    31be:	00 00 
    31c0:	75 14                	jne    31d6 <init_vga+0x136>
    31c2:	48 81 c4 a0 00 00 00 	add    $0xa0,%rsp
    31c9:	ba 00 53 07 00       	mov    $0x75300,%edx
    31ce:	31 f6                	xor    %esi,%esi
    31d0:	5d                   	pop    %rbp
    31d1:	e9 ea f1 ff ff       	jmp    23c0 <memset@plt>
    31d6:	e8 e5 f2 ff ff       	call   24c0 <__stack_chk_fail@plt>
    31db:	0f 1f 44 00 00       	nopl   0x0(%rax,%rax,1)

00000000000031e0 <audio_io_handler>:
    31e0:	f3 0f 1e fa          	endbr64 
    31e4:	c3                   	ret    
    31e5:	66 66 2e 0f 1f 84 00 	data16 cs nopw 0x0(%rax,%rax,1)
    31ec:	00 00 00 00 

00000000000031f0 <init_audio>:
    31f0:	f3 0f 1e fa          	endbr64 
    31f4:	48 83 ec 08          	sub    $0x8,%rsp
    31f8:	bf 18 00 00 00       	mov    $0x18,%edi
    31fd:	e8 ce 48 00 00       	call   7ad0 <new_space>
    3202:	b9 18 00 00 00       	mov    $0x18,%ecx
    3207:	4c 8d 05 d2 ff ff ff 	lea    -0x2e(%rip),%r8        # 31e0 <audio_io_handler>
    320e:	be 00 02 00 a0       	mov    $0xa0000200,%esi
    3213:	48 89 c2             	mov    %rax,%rdx
    3216:	48 8d 3d 34 61 00 00 	lea    0x6134(%rip),%rdi        # 9351 <__PRETTY_FUNCTION__.1+0x169>
    321d:	e8 de 4d 00 00       	call   8000 <add_mmio_map>
    3222:	bf 00 00 01 00       	mov    $0x10000,%edi
    3227:	e8 a4 48 00 00       	call   7ad0 <new_space>
    322c:	45 31 c0             	xor    %r8d,%r8d
    322f:	48 83 c4 08          	add    $0x8,%rsp
    3233:	b9 00 00 01 00       	mov    $0x10000,%ecx
    3238:	48 89 c2             	mov    %rax,%rdx
    323b:	be 00 00 20 a1       	mov    $0xa1200000,%esi
    3240:	48 8d 3d 10 61 00 00 	lea    0x6110(%rip),%rdi        # 9357 <__PRETTY_FUNCTION__.1+0x16f>
    3247:	e9 b4 4d 00 00       	jmp    8000 <add_mmio_map>
    324c:	0f 1f 40 00          	nopl   0x0(%rax)

0000000000003250 <init_disk>:
    3250:	f3 0f 1e fa          	endbr64 
    3254:	c3                   	ret    
    3255:	66 2e 0f 1f 84 00 00 	cs nopw 0x0(%rax,%rax,1)
    325c:	00 00 00 
    325f:	90                   	nop

0000000000003260 <decode_operand.constprop.0.isra.0>:
    3260:	89 f8                	mov    %edi,%eax
    3262:	49 89 ca             	mov    %rcx,%r10
    3265:	53                   	push   %rbx
    3266:	48 89 d7             	mov    %rdx,%rdi
    3269:	41 89 c3             	mov    %eax,%r11d
    326c:	8b 54 24 18          	mov    0x18(%rsp),%edx
    3270:	41 c1 eb 05          	shr    $0x5,%r11d
    3274:	44 89 d9             	mov    %r11d,%ecx
    3277:	83 e1 1f             	and    $0x1f,%ecx
    327a:	89 0e                	mov    %ecx,(%rsi)
    327c:	89 c1                	mov    %eax,%ecx
    327e:	c1 e9 0a             	shr    $0xa,%ecx
    3281:	89 cb                	mov    %ecx,%ebx
    3283:	83 e3 1f             	and    $0x1f,%ebx
    3286:	89 1f                	mov    %ebx,(%rdi)
    3288:	89 c3                	mov    %eax,%ebx
    328a:	83 e3 1f             	and    $0x1f,%ebx
    328d:	41 89 1a             	mov    %ebx,(%r10)
    3290:	83 fa 06             	cmp    $0x6,%edx
    3293:	77 39                	ja     32ce <decode_operand.constprop.0.isra.0+0x6e>
    3295:	4c 8d 15 c8 60 00 00 	lea    0x60c8(%rip),%r10        # 9364 <__PRETTY_FUNCTION__.1+0x17c>
    329c:	49 63 14 92          	movslq (%r10,%rdx,4),%rdx
    32a0:	4c 01 d2             	add    %r10,%rdx
    32a3:	3e ff e2             	notrack jmp *%rdx
    32a6:	66 2e 0f 1f 84 00 00 	cs nopw 0x0(%rax,%rax,1)
    32ad:	00 00 00 
    32b0:	48 0f bf c9          	movswq %cx,%rcx
    32b4:	c1 e1 02             	shl    $0x2,%ecx
    32b7:	48 8b 44 24 10       	mov    0x10(%rsp),%rax
    32bc:	89 08                	mov    %ecx,(%rax)
    32be:	48 63 16             	movslq (%rsi),%rdx
    32c1:	48 8d 05 b8 d2 00 00 	lea    0xd2b8(%rip),%rax        # 10580 <cpu>
    32c8:	8b 04 90             	mov    (%rax,%rdx,4),%eax
    32cb:	41 89 00             	mov    %eax,(%r8)
    32ce:	5b                   	pop    %rbx
    32cf:	c3                   	ret    
    32d0:	48 63 16             	movslq (%rsi),%rdx
    32d3:	48 8d 05 a6 d2 00 00 	lea    0xd2a6(%rip),%rax        # 10580 <cpu>
    32da:	5b                   	pop    %rbx
    32db:	8b 04 90             	mov    (%rax,%rdx,4),%eax
    32de:	41 89 00             	mov    %eax,(%r8)
    32e1:	8b 07                	mov    (%rdi),%eax
    32e3:	41 89 01             	mov    %eax,(%r9)
    32e6:	c3                   	ret    
    32e7:	66 0f 1f 84 00 00 00 	nopw   0x0(%rax,%rax,1)
    32ee:	00 00 
    32f0:	c1 e1 04             	shl    $0x4,%ecx
    32f3:	66 c1 f9 04          	sar    $0x4,%cx
    32f7:	48 0f bf c9          	movswq %cx,%rcx
    32fb:	eb ba                	jmp    32b7 <decode_operand.constprop.0.isra.0+0x57>
    32fd:	0f 1f 00             	nopl   (%rax)
    3300:	81 e1 ff 0f 00 00    	and    $0xfff,%ecx
    3306:	eb af                	jmp    32b7 <decode_operand.constprop.0.isra.0+0x57>
    3308:	0f 1f 84 00 00 00 00 	nopl   0x0(%rax,%rax,1)
    330f:	00 
    3310:	48 8b 44 24 10       	mov    0x10(%rsp),%rax
    3315:	41 c1 e3 0c          	shl    $0xc,%r11d
    3319:	44 89 18             	mov    %r11d,(%rax)
    331c:	48 63 16             	movslq (%rsi),%rdx
    331f:	48 8d 05 5a d2 00 00 	lea    0xd25a(%rip),%rax        # 10580 <cpu>
    3326:	5b                   	pop    %rbx
    3327:	8b 04 90             	mov    (%rax,%rdx,4),%eax
    332a:	41 89 00             	mov    %eax,(%r8)
    332d:	c3                   	ret    
    332e:	66 90                	xchg   %ax,%ax
    3330:	48 63 16             	movslq (%rsi),%rdx
    3333:	48 8d 05 46 d2 00 00 	lea    0xd246(%rip),%rax        # 10580 <cpu>
    333a:	5b                   	pop    %rbx
    333b:	8b 14 90             	mov    (%rax,%rdx,4),%edx
    333e:	41 89 10             	mov    %edx,(%r8)
    3341:	48 63 17             	movslq (%rdi),%rdx
    3344:	8b 04 90             	mov    (%rax,%rdx,4),%eax
    3347:	41 89 01             	mov    %eax,(%r9)
    334a:	c3                   	ret    
    334b:	0f 1f 44 00 00       	nopl   0x0(%rax,%rax,1)
    3350:	c1 e1 02             	shl    $0x2,%ecx
    3353:	c1 e0 12             	shl    $0x12,%eax
    3356:	48 8b 7c 24 10       	mov    0x10(%rsp),%rdi
    335b:	81 e1 fc ff 03 00    	and    $0x3fffc,%ecx
    3361:	09 c8                	or     %ecx,%eax
    3363:	c1 e0 04             	shl    $0x4,%eax
    3366:	c1 f8 04             	sar    $0x4,%eax
    3369:	89 07                	mov    %eax,(%rdi)
    336b:	5b                   	pop    %rbx
    336c:	c3                   	ret    
    336d:	0f 1f 00             	nopl   (%rax)

0000000000003370 <decode_exec>:
    3370:	55                   	push   %rbp
    3371:	53                   	push   %rbx
    3372:	48 89 fb             	mov    %rdi,%rbx
    3375:	48 83 ec 28          	sub    $0x28,%rsp
    3379:	8b 57 0c             	mov    0xc(%rdi),%edx
    337c:	8b 4f 04             	mov    0x4(%rdi),%ecx
    337f:	64 48 8b 04 25 28 00 	mov    %fs:0x28,%rax
    3386:	00 00 
    3388:	48 89 44 24 18       	mov    %rax,0x18(%rsp)
    338d:	31 c0                	xor    %eax,%eax
    338f:	8b 2f                	mov    (%rdi),%ebp
    3391:	c7 04 24 00 00 00 00 	movl   $0x0,(%rsp)
    3398:	48 89 d0             	mov    %rdx,%rax
    339b:	89 4f 08             	mov    %ecx,0x8(%rdi)
    339e:	48 89 d7             	mov    %rdx,%rdi
    33a1:	48 c1 e8 1a          	shr    $0x1a,%rax
    33a5:	c7 44 24 04 00 00 00 	movl   $0x0,0x4(%rsp)
    33ac:	00 
    33ad:	c7 44 24 08 00 00 00 	movl   $0x0,0x8(%rsp)
    33b4:	00 
    33b5:	c7 44 24 0c 00 00 00 	movl   $0x0,0xc(%rsp)
    33bc:	00 
    33bd:	c7 44 24 10 00 00 00 	movl   $0x0,0x10(%rsp)
    33c4:	00 
    33c5:	c7 44 24 14 00 00 00 	movl   $0x0,0x14(%rsp)
    33cc:	00 
    33cd:	48 83 f8 14          	cmp    $0x14,%rax
    33d1:	0f 84 99 02 00 00    	je     3670 <decode_exec+0x300>
    33d7:	48 83 f8 15          	cmp    $0x15,%rax
    33db:	0f 84 3f 02 00 00    	je     3620 <decode_exec+0x2b0>
    33e1:	48 81 fa 20 00 00 4c 	cmp    $0x4c000020,%rdx
    33e8:	0f 84 02 03 00 00    	je     36f0 <decode_exec+0x380>
    33ee:	48 83 f8 13          	cmp    $0x13,%rax
    33f2:	0f 84 08 03 00 00    	je     3700 <decode_exec+0x390>
    33f8:	48 83 f8 16          	cmp    $0x16,%rax
    33fc:	0f 84 8e 02 00 00    	je     3690 <decode_exec+0x320>
    3402:	48 83 f8 17          	cmp    $0x17,%rax
    3406:	0f 84 b4 02 00 00    	je     36c0 <decode_exec+0x350>
    340c:	48 83 f8 18          	cmp    $0x18,%rax
    3410:	0f 84 42 03 00 00    	je     3758 <decode_exec+0x3e8>
    3416:	48 83 f8 19          	cmp    $0x19,%rax
    341a:	0f 84 10 03 00 00    	je     3730 <decode_exec+0x3c0>
    3420:	48 83 f8 1a          	cmp    $0x1a,%rax
    3424:	0f 84 56 03 00 00    	je     3780 <decode_exec+0x410>
    342a:	48 83 f8 1b          	cmp    $0x1b,%rax
    342e:	0f 84 74 03 00 00    	je     37a8 <decode_exec+0x438>
    3434:	48 89 d0             	mov    %rdx,%rax
    3437:	48 c1 e8 19          	shr    $0x19,%rax
    343b:	48 83 f8 0a          	cmp    $0xa,%rax
    343f:	0f 84 8b 03 00 00    	je     37d0 <decode_exec+0x460>
    3445:	48 83 f8 0e          	cmp    $0xe,%rax
    3449:	0f 84 9c 03 00 00    	je     37eb <decode_exec+0x47b>
    344f:	48 89 d0             	mov    %rdx,%rax
    3452:	48 c1 e8 16          	shr    $0x16,%rax
    3456:	48 83 f8 08          	cmp    $0x8,%rax
    345a:	0f 84 ab 03 00 00    	je     380b <decode_exec+0x49b>
    3460:	48 83 f8 09          	cmp    $0x9,%rax
    3464:	0f 84 d4 03 00 00    	je     383e <decode_exec+0x4ce>
    346a:	48 83 f8 0a          	cmp    $0xa,%rax
    346e:	0f 84 ff 03 00 00    	je     3873 <decode_exec+0x503>
    3474:	48 83 f8 0d          	cmp    $0xd,%rax
    3478:	0f 84 22 04 00 00    	je     38a0 <decode_exec+0x530>
    347e:	48 83 f8 0e          	cmp    $0xe,%rax
    3482:	0f 84 5b 04 00 00    	je     38e3 <decode_exec+0x573>
    3488:	48 83 f8 0f          	cmp    $0xf,%rax
    348c:	0f 84 94 04 00 00    	je     3926 <decode_exec+0x5b6>
    3492:	48 3d a0 00 00 00    	cmp    $0xa0,%rax
    3498:	0f 84 1f 05 00 00    	je     39bd <decode_exec+0x64d>
    349e:	48 3d a1 00 00 00    	cmp    $0xa1,%rax
    34a4:	0f 84 c4 04 00 00    	je     396e <decode_exec+0x5fe>
    34aa:	48 3d a2 00 00 00    	cmp    $0xa2,%rax
    34b0:	0f 84 a3 05 00 00    	je     3a59 <decode_exec+0x6e9>
    34b6:	48 3d a4 00 00 00    	cmp    $0xa4,%rax
    34bc:	0f 84 4b 05 00 00    	je     3a0d <decode_exec+0x69d>
    34c2:	48 3d a5 00 00 00    	cmp    $0xa5,%rax
    34c8:	0f 84 45 06 00 00    	je     3b13 <decode_exec+0x7a3>
    34ce:	48 3d a6 00 00 00    	cmp    $0xa6,%rax
    34d4:	0f 84 ed 05 00 00    	je     3ac7 <decode_exec+0x757>
    34da:	48 3d a8 00 00 00    	cmp    $0xa8,%rax
    34e0:	0f 84 f1 0b 00 00    	je     40d7 <decode_exec+0xd67>
    34e6:	48 3d a9 00 00 00    	cmp    $0xa9,%rax
    34ec:	0f 84 94 0b 00 00    	je     4086 <decode_exec+0xd16>
    34f2:	48 c1 ea 0f          	shr    $0xf,%rdx
    34f6:	48 83 fa 20          	cmp    $0x20,%rdx
    34fa:	0f 84 43 0b 00 00    	je     4043 <decode_exec+0xcd3>
    3500:	48 83 fa 22          	cmp    $0x22,%rdx
    3504:	0f 84 f6 0a 00 00    	je     4000 <decode_exec+0xc90>
    350a:	48 83 fa 24          	cmp    $0x24,%rdx
    350e:	0f 84 a4 0a 00 00    	je     3fb8 <decode_exec+0xc48>
    3514:	48 83 fa 25          	cmp    $0x25,%rdx
    3518:	0f 84 52 0a 00 00    	je     3f70 <decode_exec+0xc00>
    351e:	48 83 fa 28          	cmp    $0x28,%rdx
    3522:	0f 84 03 0a 00 00    	je     3f2b <decode_exec+0xbbb>
    3528:	48 83 fa 29          	cmp    $0x29,%rdx
    352c:	0f 84 b6 09 00 00    	je     3ee8 <decode_exec+0xb78>
    3532:	48 83 fa 2a          	cmp    $0x2a,%rdx
    3536:	0f 84 69 09 00 00    	je     3ea5 <decode_exec+0xb35>
    353c:	48 83 fa 2b          	cmp    $0x2b,%rdx
    3540:	0f 84 1c 09 00 00    	je     3e62 <decode_exec+0xaf2>
    3546:	48 83 fa 2e          	cmp    $0x2e,%rdx
    354a:	0f 84 fe 08 00 00    	je     3e4e <decode_exec+0xade>
    3550:	48 83 fa 2f          	cmp    $0x2f,%rdx
    3554:	0f 84 e0 08 00 00    	je     3e3a <decode_exec+0xaca>
    355a:	48 83 fa 30          	cmp    $0x30,%rdx
    355e:	0f 84 c2 08 00 00    	je     3e26 <decode_exec+0xab6>
    3564:	48 83 fa 38          	cmp    $0x38,%rdx
    3568:	0f 84 74 08 00 00    	je     3de2 <decode_exec+0xa72>
    356e:	48 83 fa 39          	cmp    $0x39,%rdx
    3572:	0f 84 1d 08 00 00    	je     3d95 <decode_exec+0xa25>
    3578:	48 83 fa 3a          	cmp    $0x3a,%rdx
    357c:	0f 84 c8 07 00 00    	je     3d4a <decode_exec+0x9da>
    3582:	48 83 fa 40          	cmp    $0x40,%rdx
    3586:	0f 84 7a 07 00 00    	je     3d06 <decode_exec+0x996>
    358c:	48 83 fa 41          	cmp    $0x41,%rdx
    3590:	0f 84 2c 07 00 00    	je     3cc2 <decode_exec+0x952>
    3596:	48 83 fa 42          	cmp    $0x42,%rdx
    359a:	0f 84 dd 06 00 00    	je     3c7d <decode_exec+0x90d>
    35a0:	48 83 fa 43          	cmp    $0x43,%rdx
    35a4:	0f 84 8e 06 00 00    	je     3c38 <decode_exec+0x8c8>
    35aa:	48 81 fa 81 00 00 00 	cmp    $0x81,%rdx
    35b1:	0f 84 3c 06 00 00    	je     3bf3 <decode_exec+0x883>
    35b7:	48 81 fa 89 00 00 00 	cmp    $0x89,%rdx
    35be:	0f 84 eb 05 00 00    	je     3baf <decode_exec+0x83f>
    35c4:	48 81 fa 91 00 00 00 	cmp    $0x91,%rdx
    35cb:	0f 84 9a 05 00 00    	je     3b6b <decode_exec+0x7fb>
    35d1:	48 83 fa 54          	cmp    $0x54,%rdx
    35d5:	0f 85 84 05 00 00    	jne    3b5f <decode_exec+0x7ef>
    35db:	89 f8                	mov    %edi,%eax
    35dd:	c1 e8 05             	shr    $0x5,%eax
    35e0:	83 e0 1f             	and    $0x1f,%eax
    35e3:	89 04 24             	mov    %eax,(%rsp)
    35e6:	89 f8                	mov    %edi,%eax
    35e8:	83 e7 1f             	and    $0x1f,%edi
    35eb:	c1 e8 0a             	shr    $0xa,%eax
    35ee:	89 7c 24 08          	mov    %edi,0x8(%rsp)
    35f2:	89 ef                	mov    %ebp,%edi
    35f4:	83 e0 1f             	and    $0x1f,%eax
    35f7:	89 44 24 04          	mov    %eax,0x4(%rsp)
    35fb:	e8 e0 27 00 00       	call   5de0 <scan_bp>
    3600:	83 e8 01             	sub    $0x1,%eax
    3603:	0f 84 a1 04 00 00    	je     3aaa <decode_exec+0x73a>
    3609:	8b 15 81 cf 00 00    	mov    0xcf81(%rip),%edx        # 10590 <cpu+0x10>
    360f:	8b 33                	mov    (%rbx),%esi
    3611:	bf 02 00 00 00       	mov    $0x2,%edi
    3616:	e8 c5 4f 00 00       	call   85e0 <set_nemu_state>
    361b:	89 6b 08             	mov    %ebp,0x8(%rbx)
    361e:	eb 21                	jmp    3641 <decode_exec+0x2d1>
    3620:	c1 ea 08             	shr    $0x8,%edx
    3623:	89 f8                	mov    %edi,%eax
    3625:	89 0d 59 cf 00 00    	mov    %ecx,0xcf59(%rip)        # 10584 <cpu+0x4>
    362b:	81 e2 fc ff 03 00    	and    $0x3fffc,%edx
    3631:	c1 e0 12             	shl    $0x12,%eax
    3634:	09 d0                	or     %edx,%eax
    3636:	c1 e0 04             	shl    $0x4,%eax
    3639:	c1 f8 04             	sar    $0x4,%eax
    363c:	01 e8                	add    %ebp,%eax
    363e:	89 43 08             	mov    %eax,0x8(%rbx)
    3641:	f3 0f 1e fa          	endbr64 
    3645:	c7 05 31 cf 00 00 00 	movl   $0x0,0xcf31(%rip)        # 10580 <cpu>
    364c:	00 00 00 
    364f:	48 8b 44 24 18       	mov    0x18(%rsp),%rax
    3654:	64 48 2b 04 25 28 00 	sub    %fs:0x28,%rax
    365b:	00 00 
    365d:	0f 85 06 03 00 00    	jne    3969 <decode_exec+0x5f9>
    3663:	48 83 c4 28          	add    $0x28,%rsp
    3667:	31 c0                	xor    %eax,%eax
    3669:	5b                   	pop    %rbx
    366a:	5d                   	pop    %rbp
    366b:	c3                   	ret    
    366c:	0f 1f 40 00          	nopl   0x0(%rax)
    3670:	c1 ea 08             	shr    $0x8,%edx
    3673:	89 f8                	mov    %edi,%eax
    3675:	81 e2 fc ff 03 00    	and    $0x3fffc,%edx
    367b:	c1 e0 12             	shl    $0x12,%eax
    367e:	09 d0                	or     %edx,%eax
    3680:	c1 e0 04             	shl    $0x4,%eax
    3683:	c1 f8 04             	sar    $0x4,%eax
    3686:	01 e8                	add    %ebp,%eax
    3688:	89 43 08             	mov    %eax,0x8(%rbx)
    368b:	eb b4                	jmp    3641 <decode_exec+0x2d1>
    368d:	0f 1f 00             	nopl   (%rax)
    3690:	89 d6                	mov    %edx,%esi
    3692:	c1 ea 05             	shr    $0x5,%edx
    3695:	48 8d 0d e4 ce 00 00 	lea    0xcee4(%rip),%rcx        # 10580 <cpu>
    369c:	b8 04 00 00 00       	mov    $0x4,%eax
    36a1:	83 e2 1f             	and    $0x1f,%edx
    36a4:	83 e6 1f             	and    $0x1f,%esi
    36a7:	8b 14 91             	mov    (%rcx,%rdx,4),%edx
    36aa:	39 14 b1             	cmp    %edx,(%rcx,%rsi,4)
    36ad:	74 30                	je     36df <decode_exec+0x36f>
    36af:	01 e8                	add    %ebp,%eax
    36b1:	89 43 08             	mov    %eax,0x8(%rbx)
    36b4:	eb 8b                	jmp    3641 <decode_exec+0x2d1>
    36b6:	66 2e 0f 1f 84 00 00 	cs nopw 0x0(%rax,%rax,1)
    36bd:	00 00 00 
    36c0:	89 d6                	mov    %edx,%esi
    36c2:	c1 ea 05             	shr    $0x5,%edx
    36c5:	48 8d 0d b4 ce 00 00 	lea    0xceb4(%rip),%rcx        # 10580 <cpu>
    36cc:	b8 04 00 00 00       	mov    $0x4,%eax
    36d1:	83 e2 1f             	and    $0x1f,%edx
    36d4:	83 e6 1f             	and    $0x1f,%esi
    36d7:	8b 14 91             	mov    (%rcx,%rdx,4),%edx
    36da:	39 14 b1             	cmp    %edx,(%rcx,%rsi,4)
    36dd:	74 d0                	je     36af <decode_exec+0x33f>
    36df:	89 f8                	mov    %edi,%eax
    36e1:	c1 e8 0a             	shr    $0xa,%eax
    36e4:	48 0f bf c0          	movswq %ax,%rax
    36e8:	c1 e0 02             	shl    $0x2,%eax
    36eb:	eb c2                	jmp    36af <decode_exec+0x33f>
    36ed:	0f 1f 00             	nopl   (%rax)
    36f0:	8b 05 8e ce 00 00    	mov    0xce8e(%rip),%eax        # 10584 <cpu+0x4>
    36f6:	89 43 08             	mov    %eax,0x8(%rbx)
    36f9:	e9 43 ff ff ff       	jmp    3641 <decode_exec+0x2d1>
    36fe:	66 90                	xchg   %ax,%ax
    3700:	c1 ea 05             	shr    $0x5,%edx
    3703:	48 8d 35 76 ce 00 00 	lea    0xce76(%rip),%rsi        # 10580 <cpu>
    370a:	89 f8                	mov    %edi,%eax
    370c:	83 e7 1f             	and    $0x1f,%edi
    370f:	83 e2 1f             	and    $0x1f,%edx
    3712:	c1 e8 0a             	shr    $0xa,%eax
    3715:	8b 14 96             	mov    (%rsi,%rdx,4),%edx
    3718:	48 0f bf c0          	movswq %ax,%rax
    371c:	8d 04 82             	lea    (%rdx,%rax,4),%eax
    371f:	89 43 08             	mov    %eax,0x8(%rbx)
    3722:	89 0c be             	mov    %ecx,(%rsi,%rdi,4)
    3725:	e9 17 ff ff ff       	jmp    3641 <decode_exec+0x2d1>
    372a:	66 0f 1f 44 00 00    	nopw   0x0(%rax,%rax,1)
    3730:	89 d6                	mov    %edx,%esi
    3732:	c1 ea 05             	shr    $0x5,%edx
    3735:	48 8d 0d 44 ce 00 00 	lea    0xce44(%rip),%rcx        # 10580 <cpu>
    373c:	b8 04 00 00 00       	mov    $0x4,%eax
    3741:	83 e2 1f             	and    $0x1f,%edx
    3744:	83 e6 1f             	and    $0x1f,%esi
    3747:	8b 14 91             	mov    (%rcx,%rdx,4),%edx
    374a:	39 14 b1             	cmp    %edx,(%rcx,%rsi,4)
    374d:	0f 8f 5c ff ff ff    	jg     36af <decode_exec+0x33f>
    3753:	eb 8a                	jmp    36df <decode_exec+0x36f>
    3755:	0f 1f 00             	nopl   (%rax)
    3758:	89 d6                	mov    %edx,%esi
    375a:	c1 ea 05             	shr    $0x5,%edx
    375d:	48 8d 0d 1c ce 00 00 	lea    0xce1c(%rip),%rcx        # 10580 <cpu>
    3764:	b8 04 00 00 00       	mov    $0x4,%eax
    3769:	83 e2 1f             	and    $0x1f,%edx
    376c:	83 e6 1f             	and    $0x1f,%esi
    376f:	8b 14 91             	mov    (%rcx,%rdx,4),%edx
    3772:	39 14 b1             	cmp    %edx,(%rcx,%rsi,4)
    3775:	0f 8e 34 ff ff ff    	jle    36af <decode_exec+0x33f>
    377b:	e9 5f ff ff ff       	jmp    36df <decode_exec+0x36f>
    3780:	89 d6                	mov    %edx,%esi
    3782:	c1 ea 05             	shr    $0x5,%edx
    3785:	48 8d 0d f4 cd 00 00 	lea    0xcdf4(%rip),%rcx        # 10580 <cpu>
    378c:	b8 04 00 00 00       	mov    $0x4,%eax
    3791:	83 e2 1f             	and    $0x1f,%edx
    3794:	83 e6 1f             	and    $0x1f,%esi
    3797:	8b 14 91             	mov    (%rcx,%rdx,4),%edx
    379a:	39 14 b1             	cmp    %edx,(%rcx,%rsi,4)
    379d:	0f 86 0c ff ff ff    	jbe    36af <decode_exec+0x33f>
    37a3:	e9 37 ff ff ff       	jmp    36df <decode_exec+0x36f>
    37a8:	89 d6                	mov    %edx,%esi
    37aa:	c1 ea 05             	shr    $0x5,%edx
    37ad:	48 8d 0d cc cd 00 00 	lea    0xcdcc(%rip),%rcx        # 10580 <cpu>
    37b4:	b8 04 00 00 00       	mov    $0x4,%eax
    37b9:	83 e2 1f             	and    $0x1f,%edx
    37bc:	83 e6 1f             	and    $0x1f,%esi
    37bf:	8b 14 91             	mov    (%rcx,%rdx,4),%edx
    37c2:	39 14 b1             	cmp    %edx,(%rcx,%rsi,4)
    37c5:	0f 87 e4 fe ff ff    	ja     36af <decode_exec+0x33f>
    37cb:	e9 0f ff ff ff       	jmp    36df <decode_exec+0x36f>
    37d0:	c1 e7 07             	shl    $0x7,%edi
    37d3:	83 e2 1f             	and    $0x1f,%edx
    37d6:	48 8d 05 a3 cd 00 00 	lea    0xcda3(%rip),%rax        # 10580 <cpu>
    37dd:	81 e7 00 f0 ff ff    	and    $0xfffff000,%edi
    37e3:	89 3c 90             	mov    %edi,(%rax,%rdx,4)
    37e6:	e9 56 fe ff ff       	jmp    3641 <decode_exec+0x2d1>
    37eb:	c1 e7 07             	shl    $0x7,%edi
    37ee:	89 d1                	mov    %edx,%ecx
    37f0:	48 8d 15 89 cd 00 00 	lea    0xcd89(%rip),%rdx        # 10580 <cpu>
    37f7:	81 e7 00 f0 ff ff    	and    $0xfffff000,%edi
    37fd:	83 e1 1f             	and    $0x1f,%ecx
    3800:	8d 04 2f             	lea    (%rdi,%rbp,1),%eax
    3803:	89 04 8a             	mov    %eax,(%rdx,%rcx,4)
    3806:	e9 36 fe ff ff       	jmp    3641 <decode_exec+0x2d1>
    380b:	89 f8                	mov    %edi,%eax
    380d:	89 d6                	mov    %edx,%esi
    380f:	c1 ea 05             	shr    $0x5,%edx
    3812:	48 8d 0d 67 cd 00 00 	lea    0xcd67(%rip),%rcx        # 10580 <cpu>
    3819:	c1 e8 0a             	shr    $0xa,%eax
    381c:	83 e2 1f             	and    $0x1f,%edx
    381f:	83 e6 1f             	and    $0x1f,%esi
    3822:	c1 e0 04             	shl    $0x4,%eax
    3825:	66 c1 f8 04          	sar    $0x4,%ax
    3829:	48 0f bf c0          	movswq %ax,%rax
    382d:	39 04 91             	cmp    %eax,(%rcx,%rdx,4)
    3830:	0f 9c c0             	setl   %al
    3833:	0f b6 c0             	movzbl %al,%eax
    3836:	89 04 b1             	mov    %eax,(%rcx,%rsi,4)
    3839:	e9 03 fe ff ff       	jmp    3641 <decode_exec+0x2d1>
    383e:	89 d0                	mov    %edx,%eax
    3840:	c1 ef 05             	shr    $0x5,%edi
    3843:	89 d6                	mov    %edx,%esi
    3845:	48 8d 0d 34 cd 00 00 	lea    0xcd34(%rip),%rcx        # 10580 <cpu>
    384c:	c1 e8 0a             	shr    $0xa,%eax
    384f:	89 fa                	mov    %edi,%edx
    3851:	83 e6 1f             	and    $0x1f,%esi
    3854:	c1 e0 04             	shl    $0x4,%eax
    3857:	83 e2 1f             	and    $0x1f,%edx
    385a:	66 c1 f8 04          	sar    $0x4,%ax
    385e:	48 0f bf c0          	movswq %ax,%rax
    3862:	39 04 91             	cmp    %eax,(%rcx,%rdx,4)
    3865:	0f 92 c0             	setb   %al
    3868:	0f b6 c0             	movzbl %al,%eax
    386b:	89 04 b1             	mov    %eax,(%rcx,%rsi,4)
    386e:	e9 ce fd ff ff       	jmp    3641 <decode_exec+0x2d1>
    3873:	89 f8                	mov    %edi,%eax
    3875:	89 d6                	mov    %edx,%esi
    3877:	c1 ea 05             	shr    $0x5,%edx
    387a:	48 8d 0d ff cc 00 00 	lea    0xccff(%rip),%rcx        # 10580 <cpu>
    3881:	c1 e8 0a             	shr    $0xa,%eax
    3884:	83 e2 1f             	and    $0x1f,%edx
    3887:	83 e6 1f             	and    $0x1f,%esi
    388a:	c1 e0 04             	shl    $0x4,%eax
    388d:	66 c1 f8 04          	sar    $0x4,%ax
    3891:	48 0f bf c0          	movswq %ax,%rax
    3895:	03 04 91             	add    (%rcx,%rdx,4),%eax
    3898:	89 04 b1             	mov    %eax,(%rcx,%rsi,4)
    389b:	e9 a1 fd ff ff       	jmp    3641 <decode_exec+0x2d1>
    38a0:	48 8d 4c 24 08       	lea    0x8(%rsp),%rcx
    38a5:	48 8d 54 24 04       	lea    0x4(%rsp),%rdx
    38aa:	48 89 e6             	mov    %rsp,%rsi
    38ad:	6a 01                	push   $0x1
    38af:	48 8d 44 24 1c       	lea    0x1c(%rsp),%rax
    38b4:	50                   	push   %rax
    38b5:	4c 8d 4c 24 20       	lea    0x20(%rsp),%r9
    38ba:	4c 8d 44 24 1c       	lea    0x1c(%rsp),%r8
    38bf:	e8 9c f9 ff ff       	call   3260 <decode_operand.constprop.0.isra.0>
    38c4:	48 63 4c 24 18       	movslq 0x18(%rsp),%rcx
    38c9:	8b 44 24 24          	mov    0x24(%rsp),%eax
    38cd:	48 8d 15 ac cc 00 00 	lea    0xccac(%rip),%rdx        # 10580 <cpu>
    38d4:	23 44 24 1c          	and    0x1c(%rsp),%eax
    38d8:	48 89 f4             	mov    %rsi,%rsp
    38db:	89 04 8a             	mov    %eax,(%rdx,%rcx,4)
    38de:	e9 5e fd ff ff       	jmp    3641 <decode_exec+0x2d1>
    38e3:	48 8d 4c 24 08       	lea    0x8(%rsp),%rcx
    38e8:	48 8d 54 24 04       	lea    0x4(%rsp),%rdx
    38ed:	48 89 e6             	mov    %rsp,%rsi
    38f0:	6a 01                	push   $0x1
    38f2:	48 8d 44 24 1c       	lea    0x1c(%rsp),%rax
    38f7:	50                   	push   %rax
    38f8:	4c 8d 4c 24 20       	lea    0x20(%rsp),%r9
    38fd:	4c 8d 44 24 1c       	lea    0x1c(%rsp),%r8
    3902:	e8 59 f9 ff ff       	call   3260 <decode_operand.constprop.0.isra.0>
    3907:	48 63 4c 24 18       	movslq 0x18(%rsp),%rcx
    390c:	8b 44 24 24          	mov    0x24(%rsp),%eax
    3910:	48 8d 15 69 cc 00 00 	lea    0xcc69(%rip),%rdx        # 10580 <cpu>
    3917:	0b 44 24 1c          	or     0x1c(%rsp),%eax
    391b:	48 89 f4             	mov    %rsi,%rsp
    391e:	89 04 8a             	mov    %eax,(%rdx,%rcx,4)
    3921:	e9 1b fd ff ff       	jmp    3641 <decode_exec+0x2d1>
    3926:	48 8d 4c 24 08       	lea    0x8(%rsp),%rcx
    392b:	48 8d 54 24 04       	lea    0x4(%rsp),%rdx
    3930:	48 89 e6             	mov    %rsp,%rsi
    3933:	6a 01                	push   $0x1
    3935:	48 8d 44 24 1c       	lea    0x1c(%rsp),%rax
    393a:	50                   	push   %rax
    393b:	4c 8d 4c 24 20       	lea    0x20(%rsp),%r9
    3940:	4c 8d 44 24 1c       	lea    0x1c(%rsp),%r8
    3945:	e8 16 f9 ff ff       	call   3260 <decode_operand.constprop.0.isra.0>
    394a:	48 63 4c 24 18       	movslq 0x18(%rsp),%rcx
    394f:	8b 44 24 24          	mov    0x24(%rsp),%eax
    3953:	48 8d 15 26 cc 00 00 	lea    0xcc26(%rip),%rdx        # 10580 <cpu>
    395a:	33 44 24 1c          	xor    0x1c(%rsp),%eax
    395e:	48 89 f4             	mov    %rsi,%rsp
    3961:	89 04 8a             	mov    %eax,(%rdx,%rcx,4)
    3964:	e9 d8 fc ff ff       	jmp    3641 <decode_exec+0x2d1>
    3969:	e8 52 eb ff ff       	call   24c0 <__stack_chk_fail@plt>
    396e:	48 8d 4c 24 08       	lea    0x8(%rsp),%rcx
    3973:	48 8d 54 24 04       	lea    0x4(%rsp),%rdx
    3978:	48 89 e6             	mov    %rsp,%rsi
    397b:	6a 00                	push   $0x0
    397d:	48 8d 44 24 1c       	lea    0x1c(%rsp),%rax
    3982:	50                   	push   %rax
    3983:	4c 8d 4c 24 20       	lea    0x20(%rsp),%r9
    3988:	4c 8d 44 24 1c       	lea    0x1c(%rsp),%r8
    398d:	e8 ce f8 ff ff       	call   3260 <decode_operand.constprop.0.isra.0>
    3992:	8b 7c 24 24          	mov    0x24(%rsp),%edi
    3996:	be 02 00 00 00       	mov    $0x2,%esi
    399b:	03 7c 24 1c          	add    0x1c(%rsp),%edi
    399f:	e8 bc 3e 00 00       	call   7860 <vaddr_read>
    39a4:	48 63 4c 24 18       	movslq 0x18(%rsp),%rcx
    39a9:	48 8d 15 d0 cb 00 00 	lea    0xcbd0(%rip),%rdx        # 10580 <cpu>
    39b0:	98                   	cwtl   
    39b1:	89 04 8a             	mov    %eax,(%rdx,%rcx,4)
    39b4:	41 59                	pop    %r9
    39b6:	41 5a                	pop    %r10
    39b8:	e9 84 fc ff ff       	jmp    3641 <decode_exec+0x2d1>
    39bd:	48 8d 4c 24 08       	lea    0x8(%rsp),%rcx
    39c2:	48 8d 54 24 04       	lea    0x4(%rsp),%rdx
    39c7:	48 89 e6             	mov    %rsp,%rsi
    39ca:	6a 00                	push   $0x0
    39cc:	48 8d 44 24 1c       	lea    0x1c(%rsp),%rax
    39d1:	50                   	push   %rax
    39d2:	4c 8d 4c 24 20       	lea    0x20(%rsp),%r9
    39d7:	4c 8d 44 24 1c       	lea    0x1c(%rsp),%r8
    39dc:	e8 7f f8 ff ff       	call   3260 <decode_operand.constprop.0.isra.0>
    39e1:	8b 7c 24 24          	mov    0x24(%rsp),%edi
    39e5:	be 01 00 00 00       	mov    $0x1,%esi
    39ea:	03 7c 24 1c          	add    0x1c(%rsp),%edi
    39ee:	e8 6d 3e 00 00       	call   7860 <vaddr_read>
    39f3:	48 63 4c 24 18       	movslq 0x18(%rsp),%rcx
    39f8:	48 8d 15 81 cb 00 00 	lea    0xcb81(%rip),%rdx        # 10580 <cpu>
    39ff:	0f be c0             	movsbl %al,%eax
    3a02:	89 04 8a             	mov    %eax,(%rdx,%rcx,4)
    3a05:	41 5b                	pop    %r11
    3a07:	5b                   	pop    %rbx
    3a08:	e9 34 fc ff ff       	jmp    3641 <decode_exec+0x2d1>
    3a0d:	48 8d 4c 24 08       	lea    0x8(%rsp),%rcx
    3a12:	48 8d 54 24 04       	lea    0x4(%rsp),%rdx
    3a17:	48 89 e6             	mov    %rsp,%rsi
    3a1a:	6a 00                	push   $0x0
    3a1c:	48 8d 44 24 1c       	lea    0x1c(%rsp),%rax
    3a21:	50                   	push   %rax
    3a22:	4c 8d 4c 24 20       	lea    0x20(%rsp),%r9
    3a27:	4c 8d 44 24 1c       	lea    0x1c(%rsp),%r8
    3a2c:	e8 2f f8 ff ff       	call   3260 <decode_operand.constprop.0.isra.0>
    3a31:	48 63 54 24 18       	movslq 0x18(%rsp),%rdx
    3a36:	8b 7c 24 24          	mov    0x24(%rsp),%edi
    3a3a:	48 8d 05 3f cb 00 00 	lea    0xcb3f(%rip),%rax        # 10580 <cpu>
    3a41:	03 7c 24 1c          	add    0x1c(%rsp),%edi
    3a45:	be 01 00 00 00       	mov    $0x1,%esi
    3a4a:	8b 14 90             	mov    (%rax,%rdx,4),%edx
    3a4d:	e8 2e 3e 00 00       	call   7880 <vaddr_write>
    3a52:	59                   	pop    %rcx
    3a53:	5e                   	pop    %rsi
    3a54:	e9 e8 fb ff ff       	jmp    3641 <decode_exec+0x2d1>
    3a59:	48 8d 4c 24 08       	lea    0x8(%rsp),%rcx
    3a5e:	48 8d 54 24 04       	lea    0x4(%rsp),%rdx
    3a63:	48 89 e6             	mov    %rsp,%rsi
    3a66:	6a 00                	push   $0x0
    3a68:	48 8d 44 24 1c       	lea    0x1c(%rsp),%rax
    3a6d:	50                   	push   %rax
    3a6e:	4c 8d 44 24 1c       	lea    0x1c(%rsp),%r8
    3a73:	4c 8d 4c 24 20       	lea    0x20(%rsp),%r9
    3a78:	e8 e3 f7 ff ff       	call   3260 <decode_operand.constprop.0.isra.0>
    3a7d:	8b 7c 24 24          	mov    0x24(%rsp),%edi
    3a81:	be 04 00 00 00       	mov    $0x4,%esi
    3a86:	03 7c 24 1c          	add    0x1c(%rsp),%edi
    3a8a:	48 63 5c 24 18       	movslq 0x18(%rsp),%rbx
    3a8f:	e8 cc 3d 00 00       	call   7860 <vaddr_read>
    3a94:	41 89 c0             	mov    %eax,%r8d
    3a97:	48 8d 05 e2 ca 00 00 	lea    0xcae2(%rip),%rax        # 10580 <cpu>
    3a9e:	44 89 04 98          	mov    %r8d,(%rax,%rbx,4)
    3aa2:	5f                   	pop    %rdi
    3aa3:	41 58                	pop    %r8
    3aa5:	e9 97 fb ff ff       	jmp    3641 <decode_exec+0x2d1>
    3aaa:	8b 33                	mov    (%rbx),%esi
    3aac:	31 d2                	xor    %edx,%edx
    3aae:	bf 01 00 00 00       	mov    $0x1,%edi
    3ab3:	e8 28 4b 00 00       	call   85e0 <set_nemu_state>
    3ab8:	c7 05 5e ca 00 00 01 	movl   $0x1,0xca5e(%rip)        # 10520 <break_flag>
    3abf:	00 00 00 
    3ac2:	e9 54 fb ff ff       	jmp    361b <decode_exec+0x2ab>
    3ac7:	48 8d 4c 24 08       	lea    0x8(%rsp),%rcx
    3acc:	48 8d 54 24 04       	lea    0x4(%rsp),%rdx
    3ad1:	48 89 e6             	mov    %rsp,%rsi
    3ad4:	6a 00                	push   $0x0
    3ad6:	48 8d 44 24 1c       	lea    0x1c(%rsp),%rax
    3adb:	50                   	push   %rax
    3adc:	4c 8d 4c 24 20       	lea    0x20(%rsp),%r9
    3ae1:	4c 8d 44 24 1c       	lea    0x1c(%rsp),%r8
    3ae6:	e8 75 f7 ff ff       	call   3260 <decode_operand.constprop.0.isra.0>
    3aeb:	48 63 54 24 18       	movslq 0x18(%rsp),%rdx
    3af0:	8b 7c 24 24          	mov    0x24(%rsp),%edi
    3af4:	48 8d 05 85 ca 00 00 	lea    0xca85(%rip),%rax        # 10580 <cpu>
    3afb:	03 7c 24 1c          	add    0x1c(%rsp),%edi
    3aff:	be 04 00 00 00       	mov    $0x4,%esi
    3b04:	8b 14 90             	mov    (%rax,%rdx,4),%edx
    3b07:	e8 74 3d 00 00       	call   7880 <vaddr_write>
    3b0c:	5d                   	pop    %rbp
    3b0d:	58                   	pop    %rax
    3b0e:	e9 2e fb ff ff       	jmp    3641 <decode_exec+0x2d1>
    3b13:	48 8d 4c 24 08       	lea    0x8(%rsp),%rcx
    3b18:	48 8d 54 24 04       	lea    0x4(%rsp),%rdx
    3b1d:	48 89 e6             	mov    %rsp,%rsi
    3b20:	6a 00                	push   $0x0
    3b22:	48 8d 44 24 1c       	lea    0x1c(%rsp),%rax
    3b27:	50                   	push   %rax
    3b28:	4c 8d 4c 24 20       	lea    0x20(%rsp),%r9
    3b2d:	4c 8d 44 24 1c       	lea    0x1c(%rsp),%r8
    3b32:	e8 29 f7 ff ff       	call   3260 <decode_operand.constprop.0.isra.0>
    3b37:	48 63 54 24 18       	movslq 0x18(%rsp),%rdx
    3b3c:	8b 7c 24 24          	mov    0x24(%rsp),%edi
    3b40:	48 8d 05 39 ca 00 00 	lea    0xca39(%rip),%rax        # 10580 <cpu>
    3b47:	03 7c 24 1c          	add    0x1c(%rsp),%edi
    3b4b:	be 02 00 00 00       	mov    $0x2,%esi
    3b50:	8b 14 90             	mov    (%rax,%rdx,4),%edx
    3b53:	e8 28 3d 00 00       	call   7880 <vaddr_write>
    3b58:	58                   	pop    %rax
    3b59:	5a                   	pop    %rdx
    3b5a:	e9 e2 fa ff ff       	jmp    3641 <decode_exec+0x2d1>
    3b5f:	89 ef                	mov    %ebp,%edi
    3b61:	e8 9a 4a 00 00       	call   8600 <invalid_inst>
    3b66:	e9 d6 fa ff ff       	jmp    3641 <decode_exec+0x2d1>
    3b6b:	48 8d 4c 24 08       	lea    0x8(%rsp),%rcx
    3b70:	48 8d 54 24 04       	lea    0x4(%rsp),%rdx
    3b75:	48 89 e6             	mov    %rsp,%rsi
    3b78:	6a 06                	push   $0x6
    3b7a:	48 8d 44 24 1c       	lea    0x1c(%rsp),%rax
    3b7f:	50                   	push   %rax
    3b80:	4c 8d 4c 24 20       	lea    0x20(%rsp),%r9
    3b85:	4c 8d 44 24 1c       	lea    0x1c(%rsp),%r8
    3b8a:	e8 d1 f6 ff ff       	call   3260 <decode_operand.constprop.0.isra.0>
    3b8f:	8b 4c 24 20          	mov    0x20(%rsp),%ecx
    3b93:	8b 44 24 1c          	mov    0x1c(%rsp),%eax
    3b97:	48 8d 15 e2 c9 00 00 	lea    0xc9e2(%rip),%rdx        # 10580 <cpu>
    3b9e:	48 63 74 24 18       	movslq 0x18(%rsp),%rsi
    3ba3:	d3 f8                	sar    %cl,%eax
    3ba5:	89 04 b2             	mov    %eax,(%rdx,%rsi,4)
    3ba8:	58                   	pop    %rax
    3ba9:	5a                   	pop    %rdx
    3baa:	e9 92 fa ff ff       	jmp    3641 <decode_exec+0x2d1>
    3baf:	48 8d 4c 24 08       	lea    0x8(%rsp),%rcx
    3bb4:	48 8d 54 24 04       	lea    0x4(%rsp),%rdx
    3bb9:	48 89 e6             	mov    %rsp,%rsi
    3bbc:	6a 06                	push   $0x6
    3bbe:	48 8d 44 24 1c       	lea    0x1c(%rsp),%rax
    3bc3:	50                   	push   %rax
    3bc4:	4c 8d 4c 24 20       	lea    0x20(%rsp),%r9
    3bc9:	4c 8d 44 24 1c       	lea    0x1c(%rsp),%r8
    3bce:	e8 8d f6 ff ff       	call   3260 <decode_operand.constprop.0.isra.0>
    3bd3:	8b 4c 24 20          	mov    0x20(%rsp),%ecx
    3bd7:	8b 44 24 1c          	mov    0x1c(%rsp),%eax
    3bdb:	48 8d 15 9e c9 00 00 	lea    0xc99e(%rip),%rdx        # 10580 <cpu>
    3be2:	48 63 74 24 18       	movslq 0x18(%rsp),%rsi
    3be7:	d3 e8                	shr    %cl,%eax
    3be9:	89 04 b2             	mov    %eax,(%rdx,%rsi,4)
    3bec:	59                   	pop    %rcx
    3bed:	5e                   	pop    %rsi
    3bee:	e9 4e fa ff ff       	jmp    3641 <decode_exec+0x2d1>
    3bf3:	48 8d 4c 24 08       	lea    0x8(%rsp),%rcx
    3bf8:	48 8d 54 24 04       	lea    0x4(%rsp),%rdx
    3bfd:	48 89 e6             	mov    %rsp,%rsi
    3c00:	6a 06                	push   $0x6
    3c02:	48 8d 44 24 1c       	lea    0x1c(%rsp),%rax
    3c07:	50                   	push   %rax
    3c08:	4c 8d 4c 24 20       	lea    0x20(%rsp),%r9
    3c0d:	4c 8d 44 24 1c       	lea    0x1c(%rsp),%r8
    3c12:	e8 49 f6 ff ff       	call   3260 <decode_operand.constprop.0.isra.0>
    3c17:	8b 4c 24 20          	mov    0x20(%rsp),%ecx
    3c1b:	8b 44 24 1c          	mov    0x1c(%rsp),%eax
    3c1f:	48 8d 15 5a c9 00 00 	lea    0xc95a(%rip),%rdx        # 10580 <cpu>
    3c26:	48 63 74 24 18       	movslq 0x18(%rsp),%rsi
    3c2b:	d3 e0                	shl    %cl,%eax
    3c2d:	89 04 b2             	mov    %eax,(%rdx,%rsi,4)
    3c30:	5f                   	pop    %rdi
    3c31:	41 58                	pop    %r8
    3c33:	e9 09 fa ff ff       	jmp    3641 <decode_exec+0x2d1>
    3c38:	48 8d 4c 24 08       	lea    0x8(%rsp),%rcx
    3c3d:	48 8d 54 24 04       	lea    0x4(%rsp),%rdx
    3c42:	48 89 e6             	mov    %rsp,%rsi
    3c45:	6a 03                	push   $0x3
    3c47:	48 8d 44 24 1c       	lea    0x1c(%rsp),%rax
    3c4c:	50                   	push   %rax
    3c4d:	4c 8d 4c 24 20       	lea    0x20(%rsp),%r9
    3c52:	4c 8d 44 24 1c       	lea    0x1c(%rsp),%r8
    3c57:	e8 04 f6 ff ff       	call   3260 <decode_operand.constprop.0.isra.0>
    3c5c:	8b 44 24 1c          	mov    0x1c(%rsp),%eax
    3c60:	31 d2                	xor    %edx,%edx
    3c62:	48 63 4c 24 18       	movslq 0x18(%rsp),%rcx
    3c67:	f7 74 24 20          	divl   0x20(%rsp)
    3c6b:	48 8d 05 0e c9 00 00 	lea    0xc90e(%rip),%rax        # 10580 <cpu>
    3c72:	48 89 f4             	mov    %rsi,%rsp
    3c75:	89 14 88             	mov    %edx,(%rax,%rcx,4)
    3c78:	e9 c4 f9 ff ff       	jmp    3641 <decode_exec+0x2d1>
    3c7d:	48 8d 4c 24 08       	lea    0x8(%rsp),%rcx
    3c82:	48 8d 54 24 04       	lea    0x4(%rsp),%rdx
    3c87:	48 89 e6             	mov    %rsp,%rsi
    3c8a:	6a 03                	push   $0x3
    3c8c:	48 8d 44 24 1c       	lea    0x1c(%rsp),%rax
    3c91:	50                   	push   %rax
    3c92:	4c 8d 4c 24 20       	lea    0x20(%rsp),%r9
    3c97:	4c 8d 44 24 1c       	lea    0x1c(%rsp),%r8
    3c9c:	e8 bf f5 ff ff       	call   3260 <decode_operand.constprop.0.isra.0>
    3ca1:	8b 44 24 1c          	mov    0x1c(%rsp),%eax
    3ca5:	31 d2                	xor    %edx,%edx
    3ca7:	48 63 4c 24 18       	movslq 0x18(%rsp),%rcx
    3cac:	f7 74 24 20          	divl   0x20(%rsp)
    3cb0:	48 8d 15 c9 c8 00 00 	lea    0xc8c9(%rip),%rdx        # 10580 <cpu>
    3cb7:	48 89 f4             	mov    %rsi,%rsp
    3cba:	89 04 8a             	mov    %eax,(%rdx,%rcx,4)
    3cbd:	e9 7f f9 ff ff       	jmp    3641 <decode_exec+0x2d1>
    3cc2:	48 8d 4c 24 08       	lea    0x8(%rsp),%rcx
    3cc7:	48 8d 54 24 04       	lea    0x4(%rsp),%rdx
    3ccc:	48 89 e6             	mov    %rsp,%rsi
    3ccf:	6a 03                	push   $0x3
    3cd1:	48 8d 44 24 1c       	lea    0x1c(%rsp),%rax
    3cd6:	50                   	push   %rax
    3cd7:	4c 8d 4c 24 20       	lea    0x20(%rsp),%r9
    3cdc:	4c 8d 44 24 1c       	lea    0x1c(%rsp),%r8
    3ce1:	e8 7a f5 ff ff       	call   3260 <decode_operand.constprop.0.isra.0>
    3ce6:	8b 44 24 1c          	mov    0x1c(%rsp),%eax
    3cea:	48 63 4c 24 18       	movslq 0x18(%rsp),%rcx
    3cef:	99                   	cltd   
    3cf0:	f7 7c 24 20          	idivl  0x20(%rsp)
    3cf4:	48 8d 05 85 c8 00 00 	lea    0xc885(%rip),%rax        # 10580 <cpu>
    3cfb:	48 89 f4             	mov    %rsi,%rsp
    3cfe:	89 14 88             	mov    %edx,(%rax,%rcx,4)
    3d01:	e9 3b f9 ff ff       	jmp    3641 <decode_exec+0x2d1>
    3d06:	48 8d 4c 24 08       	lea    0x8(%rsp),%rcx
    3d0b:	48 8d 54 24 04       	lea    0x4(%rsp),%rdx
    3d10:	48 89 e6             	mov    %rsp,%rsi
    3d13:	6a 03                	push   $0x3
    3d15:	48 8d 44 24 1c       	lea    0x1c(%rsp),%rax
    3d1a:	50                   	push   %rax
    3d1b:	4c 8d 4c 24 20       	lea    0x20(%rsp),%r9
    3d20:	4c 8d 44 24 1c       	lea    0x1c(%rsp),%r8
    3d25:	e8 36 f5 ff ff       	call   3260 <decode_operand.constprop.0.isra.0>
    3d2a:	8b 44 24 1c          	mov    0x1c(%rsp),%eax
    3d2e:	48 63 4c 24 18       	movslq 0x18(%rsp),%rcx
    3d33:	99                   	cltd   
    3d34:	f7 7c 24 20          	idivl  0x20(%rsp)
    3d38:	48 8d 15 41 c8 00 00 	lea    0xc841(%rip),%rdx        # 10580 <cpu>
    3d3f:	48 89 f4             	mov    %rsi,%rsp
    3d42:	89 04 8a             	mov    %eax,(%rdx,%rcx,4)
    3d45:	e9 f7 f8 ff ff       	jmp    3641 <decode_exec+0x2d1>
    3d4a:	48 8d 4c 24 08       	lea    0x8(%rsp),%rcx
    3d4f:	48 8d 54 24 04       	lea    0x4(%rsp),%rdx
    3d54:	48 89 e6             	mov    %rsp,%rsi
    3d57:	6a 03                	push   $0x3
    3d59:	48 8d 44 24 1c       	lea    0x1c(%rsp),%rax
    3d5e:	50                   	push   %rax
    3d5f:	4c 8d 4c 24 20       	lea    0x20(%rsp),%r9
    3d64:	4c 8d 44 24 1c       	lea    0x1c(%rsp),%r8
    3d69:	e8 f2 f4 ff ff       	call   3260 <decode_operand.constprop.0.isra.0>
    3d6e:	8b 54 24 20          	mov    0x20(%rsp),%edx
    3d72:	8b 44 24 1c          	mov    0x1c(%rsp),%eax
    3d76:	48 63 4c 24 18       	movslq 0x18(%rsp),%rcx
    3d7b:	48 89 f4             	mov    %rsi,%rsp
    3d7e:	48 0f af c2          	imul   %rdx,%rax
    3d82:	48 8d 15 f7 c7 00 00 	lea    0xc7f7(%rip),%rdx        # 10580 <cpu>
    3d89:	48 c1 e8 20          	shr    $0x20,%rax
    3d8d:	89 04 8a             	mov    %eax,(%rdx,%rcx,4)
    3d90:	e9 ac f8 ff ff       	jmp    3641 <decode_exec+0x2d1>
    3d95:	48 8d 4c 24 08       	lea    0x8(%rsp),%rcx
    3d9a:	48 8d 54 24 04       	lea    0x4(%rsp),%rdx
    3d9f:	48 89 e6             	mov    %rsp,%rsi
    3da2:	6a 03                	push   $0x3
    3da4:	48 8d 44 24 1c       	lea    0x1c(%rsp),%rax
    3da9:	50                   	push   %rax
    3daa:	4c 8d 4c 24 20       	lea    0x20(%rsp),%r9
    3daf:	4c 8d 44 24 1c       	lea    0x1c(%rsp),%r8
    3db4:	e8 a7 f4 ff ff       	call   3260 <decode_operand.constprop.0.isra.0>
    3db9:	48 63 54 24 20       	movslq 0x20(%rsp),%rdx
    3dbe:	48 63 44 24 1c       	movslq 0x1c(%rsp),%rax
    3dc3:	48 63 4c 24 18       	movslq 0x18(%rsp),%rcx
    3dc8:	48 89 f4             	mov    %rsi,%rsp
    3dcb:	48 0f af c2          	imul   %rdx,%rax
    3dcf:	48 8d 15 aa c7 00 00 	lea    0xc7aa(%rip),%rdx        # 10580 <cpu>
    3dd6:	48 c1 f8 20          	sar    $0x20,%rax
    3dda:	89 04 8a             	mov    %eax,(%rdx,%rcx,4)
    3ddd:	e9 5f f8 ff ff       	jmp    3641 <decode_exec+0x2d1>
    3de2:	48 8d 4c 24 08       	lea    0x8(%rsp),%rcx
    3de7:	48 8d 54 24 04       	lea    0x4(%rsp),%rdx
    3dec:	48 89 e6             	mov    %rsp,%rsi
    3def:	6a 03                	push   $0x3
    3df1:	48 8d 44 24 1c       	lea    0x1c(%rsp),%rax
    3df6:	50                   	push   %rax
    3df7:	4c 8d 4c 24 20       	lea    0x20(%rsp),%r9
    3dfc:	4c 8d 44 24 1c       	lea    0x1c(%rsp),%r8
    3e01:	e8 5a f4 ff ff       	call   3260 <decode_operand.constprop.0.isra.0>
    3e06:	8b 44 24 1c          	mov    0x1c(%rsp),%eax
    3e0a:	0f af 44 24 20       	imul   0x20(%rsp),%eax
    3e0f:	48 8d 15 6a c7 00 00 	lea    0xc76a(%rip),%rdx        # 10580 <cpu>
    3e16:	48 63 4c 24 18       	movslq 0x18(%rsp),%rcx
    3e1b:	48 89 f4             	mov    %rsi,%rsp
    3e1e:	89 04 8a             	mov    %eax,(%rdx,%rcx,4)
    3e21:	e9 1b f8 ff ff       	jmp    3641 <decode_exec+0x2d1>
    3e26:	48 8d 4c 24 08       	lea    0x8(%rsp),%rcx
    3e2b:	48 8d 54 24 04       	lea    0x4(%rsp),%rdx
    3e30:	48 89 e6             	mov    %rsp,%rsi
    3e33:	6a 03                	push   $0x3
    3e35:	e9 40 fd ff ff       	jmp    3b7a <decode_exec+0x80a>
    3e3a:	48 8d 4c 24 08       	lea    0x8(%rsp),%rcx
    3e3f:	48 8d 54 24 04       	lea    0x4(%rsp),%rdx
    3e44:	48 89 e6             	mov    %rsp,%rsi
    3e47:	6a 03                	push   $0x3
    3e49:	e9 70 fd ff ff       	jmp    3bbe <decode_exec+0x84e>
    3e4e:	48 8d 4c 24 08       	lea    0x8(%rsp),%rcx
    3e53:	48 8d 54 24 04       	lea    0x4(%rsp),%rdx
    3e58:	48 89 e6             	mov    %rsp,%rsi
    3e5b:	6a 03                	push   $0x3
    3e5d:	e9 a0 fd ff ff       	jmp    3c02 <decode_exec+0x892>
    3e62:	48 8d 4c 24 08       	lea    0x8(%rsp),%rcx
    3e67:	48 8d 54 24 04       	lea    0x4(%rsp),%rdx
    3e6c:	48 89 e6             	mov    %rsp,%rsi
    3e6f:	6a 03                	push   $0x3
    3e71:	48 8d 44 24 1c       	lea    0x1c(%rsp),%rax
    3e76:	50                   	push   %rax
    3e77:	4c 8d 4c 24 20       	lea    0x20(%rsp),%r9
    3e7c:	4c 8d 44 24 1c       	lea    0x1c(%rsp),%r8
    3e81:	e8 da f3 ff ff       	call   3260 <decode_operand.constprop.0.isra.0>
    3e86:	48 63 4c 24 18       	movslq 0x18(%rsp),%rcx
    3e8b:	8b 44 24 1c          	mov    0x1c(%rsp),%eax
    3e8f:	48 8d 15 ea c6 00 00 	lea    0xc6ea(%rip),%rdx        # 10580 <cpu>
    3e96:	33 44 24 20          	xor    0x20(%rsp),%eax
    3e9a:	48 89 f4             	mov    %rsi,%rsp
    3e9d:	89 04 8a             	mov    %eax,(%rdx,%rcx,4)
    3ea0:	e9 9c f7 ff ff       	jmp    3641 <decode_exec+0x2d1>
    3ea5:	48 8d 4c 24 08       	lea    0x8(%rsp),%rcx
    3eaa:	48 8d 54 24 04       	lea    0x4(%rsp),%rdx
    3eaf:	48 89 e6             	mov    %rsp,%rsi
    3eb2:	6a 03                	push   $0x3
    3eb4:	48 8d 44 24 1c       	lea    0x1c(%rsp),%rax
    3eb9:	50                   	push   %rax
    3eba:	4c 8d 4c 24 20       	lea    0x20(%rsp),%r9
    3ebf:	4c 8d 44 24 1c       	lea    0x1c(%rsp),%r8
    3ec4:	e8 97 f3 ff ff       	call   3260 <decode_operand.constprop.0.isra.0>
    3ec9:	48 63 4c 24 18       	movslq 0x18(%rsp),%rcx
    3ece:	8b 44 24 1c          	mov    0x1c(%rsp),%eax
    3ed2:	48 8d 15 a7 c6 00 00 	lea    0xc6a7(%rip),%rdx        # 10580 <cpu>
    3ed9:	0b 44 24 20          	or     0x20(%rsp),%eax
    3edd:	48 89 f4             	mov    %rsi,%rsp
    3ee0:	89 04 8a             	mov    %eax,(%rdx,%rcx,4)
    3ee3:	e9 59 f7 ff ff       	jmp    3641 <decode_exec+0x2d1>
    3ee8:	48 8d 4c 24 08       	lea    0x8(%rsp),%rcx
    3eed:	48 8d 54 24 04       	lea    0x4(%rsp),%rdx
    3ef2:	48 89 e6             	mov    %rsp,%rsi
    3ef5:	6a 03                	push   $0x3
    3ef7:	48 8d 44 24 1c       	lea    0x1c(%rsp),%rax
    3efc:	50                   	push   %rax
    3efd:	4c 8d 4c 24 20       	lea    0x20(%rsp),%r9
    3f02:	4c 8d 44 24 1c       	lea    0x1c(%rsp),%r8
    3f07:	e8 54 f3 ff ff       	call   3260 <decode_operand.constprop.0.isra.0>
    3f0c:	48 63 4c 24 18       	movslq 0x18(%rsp),%rcx
    3f11:	8b 44 24 1c          	mov    0x1c(%rsp),%eax
    3f15:	48 8d 15 64 c6 00 00 	lea    0xc664(%rip),%rdx        # 10580 <cpu>
    3f1c:	23 44 24 20          	and    0x20(%rsp),%eax
    3f20:	48 89 f4             	mov    %rsi,%rsp
    3f23:	89 04 8a             	mov    %eax,(%rdx,%rcx,4)
    3f26:	e9 16 f7 ff ff       	jmp    3641 <decode_exec+0x2d1>
    3f2b:	48 8d 4c 24 08       	lea    0x8(%rsp),%rcx
    3f30:	48 8d 54 24 04       	lea    0x4(%rsp),%rdx
    3f35:	48 89 e6             	mov    %rsp,%rsi
    3f38:	6a 03                	push   $0x3
    3f3a:	48 8d 44 24 1c       	lea    0x1c(%rsp),%rax
    3f3f:	50                   	push   %rax
    3f40:	4c 8d 4c 24 20       	lea    0x20(%rsp),%r9
    3f45:	4c 8d 44 24 1c       	lea    0x1c(%rsp),%r8
    3f4a:	e8 11 f3 ff ff       	call   3260 <decode_operand.constprop.0.isra.0>
    3f4f:	48 63 4c 24 18       	movslq 0x18(%rsp),%rcx
    3f54:	8b 44 24 1c          	mov    0x1c(%rsp),%eax
    3f58:	48 8d 15 21 c6 00 00 	lea    0xc621(%rip),%rdx        # 10580 <cpu>
    3f5f:	0b 44 24 20          	or     0x20(%rsp),%eax
    3f63:	48 89 f4             	mov    %rsi,%rsp
    3f66:	f7 d0                	not    %eax
    3f68:	89 04 8a             	mov    %eax,(%rdx,%rcx,4)
    3f6b:	e9 d1 f6 ff ff       	jmp    3641 <decode_exec+0x2d1>
    3f70:	48 8d 4c 24 08       	lea    0x8(%rsp),%rcx
    3f75:	48 8d 54 24 04       	lea    0x4(%rsp),%rdx
    3f7a:	48 89 e6             	mov    %rsp,%rsi
    3f7d:	6a 03                	push   $0x3
    3f7f:	48 8d 44 24 1c       	lea    0x1c(%rsp),%rax
    3f84:	50                   	push   %rax
    3f85:	4c 8d 4c 24 20       	lea    0x20(%rsp),%r9
    3f8a:	4c 8d 44 24 1c       	lea    0x1c(%rsp),%r8
    3f8f:	e8 cc f2 ff ff       	call   3260 <decode_operand.constprop.0.isra.0>
    3f94:	48 63 54 24 18       	movslq 0x18(%rsp),%rdx
    3f99:	48 89 f4             	mov    %rsi,%rsp
    3f9c:	31 c9                	xor    %ecx,%ecx
    3f9e:	8b 44 24 10          	mov    0x10(%rsp),%eax
    3fa2:	39 44 24 0c          	cmp    %eax,0xc(%rsp)
    3fa6:	48 8d 05 d3 c5 00 00 	lea    0xc5d3(%rip),%rax        # 10580 <cpu>
    3fad:	0f 92 c1             	setb   %cl
    3fb0:	89 0c 90             	mov    %ecx,(%rax,%rdx,4)
    3fb3:	e9 89 f6 ff ff       	jmp    3641 <decode_exec+0x2d1>
    3fb8:	48 8d 4c 24 08       	lea    0x8(%rsp),%rcx
    3fbd:	48 8d 54 24 04       	lea    0x4(%rsp),%rdx
    3fc2:	48 89 e6             	mov    %rsp,%rsi
    3fc5:	6a 03                	push   $0x3
    3fc7:	48 8d 44 24 1c       	lea    0x1c(%rsp),%rax
    3fcc:	50                   	push   %rax
    3fcd:	4c 8d 4c 24 20       	lea    0x20(%rsp),%r9
    3fd2:	4c 8d 44 24 1c       	lea    0x1c(%rsp),%r8
    3fd7:	e8 84 f2 ff ff       	call   3260 <decode_operand.constprop.0.isra.0>
    3fdc:	48 63 54 24 18       	movslq 0x18(%rsp),%rdx
    3fe1:	48 89 f4             	mov    %rsi,%rsp
    3fe4:	31 c9                	xor    %ecx,%ecx
    3fe6:	8b 44 24 10          	mov    0x10(%rsp),%eax
    3fea:	39 44 24 0c          	cmp    %eax,0xc(%rsp)
    3fee:	48 8d 05 8b c5 00 00 	lea    0xc58b(%rip),%rax        # 10580 <cpu>
    3ff5:	0f 9c c1             	setl   %cl
    3ff8:	89 0c 90             	mov    %ecx,(%rax,%rdx,4)
    3ffb:	e9 41 f6 ff ff       	jmp    3641 <decode_exec+0x2d1>
    4000:	48 8d 4c 24 08       	lea    0x8(%rsp),%rcx
    4005:	48 8d 54 24 04       	lea    0x4(%rsp),%rdx
    400a:	48 89 e6             	mov    %rsp,%rsi
    400d:	6a 03                	push   $0x3
    400f:	48 8d 44 24 1c       	lea    0x1c(%rsp),%rax
    4014:	50                   	push   %rax
    4015:	4c 8d 4c 24 20       	lea    0x20(%rsp),%r9
    401a:	4c 8d 44 24 1c       	lea    0x1c(%rsp),%r8
    401f:	e8 3c f2 ff ff       	call   3260 <decode_operand.constprop.0.isra.0>
    4024:	48 63 4c 24 18       	movslq 0x18(%rsp),%rcx
    4029:	8b 44 24 1c          	mov    0x1c(%rsp),%eax
    402d:	48 8d 15 4c c5 00 00 	lea    0xc54c(%rip),%rdx        # 10580 <cpu>
    4034:	2b 44 24 20          	sub    0x20(%rsp),%eax
    4038:	48 89 f4             	mov    %rsi,%rsp
    403b:	89 04 8a             	mov    %eax,(%rdx,%rcx,4)
    403e:	e9 fe f5 ff ff       	jmp    3641 <decode_exec+0x2d1>
    4043:	48 8d 4c 24 08       	lea    0x8(%rsp),%rcx
    4048:	48 8d 54 24 04       	lea    0x4(%rsp),%rdx
    404d:	48 89 e6             	mov    %rsp,%rsi
    4050:	6a 03                	push   $0x3
    4052:	48 8d 44 24 1c       	lea    0x1c(%rsp),%rax
    4057:	50                   	push   %rax
    4058:	4c 8d 4c 24 20       	lea    0x20(%rsp),%r9
    405d:	4c 8d 44 24 1c       	lea    0x1c(%rsp),%r8
    4062:	e8 f9 f1 ff ff       	call   3260 <decode_operand.constprop.0.isra.0>
    4067:	48 63 4c 24 18       	movslq 0x18(%rsp),%rcx
    406c:	8b 44 24 20          	mov    0x20(%rsp),%eax
    4070:	48 8d 15 09 c5 00 00 	lea    0xc509(%rip),%rdx        # 10580 <cpu>
    4077:	03 44 24 1c          	add    0x1c(%rsp),%eax
    407b:	48 89 f4             	mov    %rsi,%rsp
    407e:	89 04 8a             	mov    %eax,(%rdx,%rcx,4)
    4081:	e9 bb f5 ff ff       	jmp    3641 <decode_exec+0x2d1>
    4086:	48 8d 4c 24 08       	lea    0x8(%rsp),%rcx
    408b:	48 8d 54 24 04       	lea    0x4(%rsp),%rdx
    4090:	48 89 e6             	mov    %rsp,%rsi
    4093:	6a 00                	push   $0x0
    4095:	48 8d 44 24 1c       	lea    0x1c(%rsp),%rax
    409a:	50                   	push   %rax
    409b:	4c 8d 4c 24 20       	lea    0x20(%rsp),%r9
    40a0:	4c 8d 44 24 1c       	lea    0x1c(%rsp),%r8
    40a5:	e8 b6 f1 ff ff       	call   3260 <decode_operand.constprop.0.isra.0>
    40aa:	8b 7c 24 24          	mov    0x24(%rsp),%edi
    40ae:	be 02 00 00 00       	mov    $0x2,%esi
    40b3:	03 7c 24 1c          	add    0x1c(%rsp),%edi
    40b7:	e8 a4 37 00 00       	call   7860 <vaddr_read>
    40bc:	48 63 4c 24 18       	movslq 0x18(%rsp),%rcx
    40c1:	48 8d 15 b8 c4 00 00 	lea    0xc4b8(%rip),%rdx        # 10580 <cpu>
    40c8:	0f b7 c0             	movzwl %ax,%eax
    40cb:	89 04 8a             	mov    %eax,(%rdx,%rcx,4)
    40ce:	41 59                	pop    %r9
    40d0:	41 5a                	pop    %r10
    40d2:	e9 6a f5 ff ff       	jmp    3641 <decode_exec+0x2d1>
    40d7:	48 8d 4c 24 08       	lea    0x8(%rsp),%rcx
    40dc:	48 8d 54 24 04       	lea    0x4(%rsp),%rdx
    40e1:	48 89 e6             	mov    %rsp,%rsi
    40e4:	6a 00                	push   $0x0
    40e6:	48 8d 44 24 1c       	lea    0x1c(%rsp),%rax
    40eb:	50                   	push   %rax
    40ec:	4c 8d 4c 24 20       	lea    0x20(%rsp),%r9
    40f1:	4c 8d 44 24 1c       	lea    0x1c(%rsp),%r8
    40f6:	e8 65 f1 ff ff       	call   3260 <decode_operand.constprop.0.isra.0>
    40fb:	8b 7c 24 24          	mov    0x24(%rsp),%edi
    40ff:	be 01 00 00 00       	mov    $0x1,%esi
    4104:	03 7c 24 1c          	add    0x1c(%rsp),%edi
    4108:	e8 53 37 00 00       	call   7860 <vaddr_read>
    410d:	48 63 4c 24 18       	movslq 0x18(%rsp),%rcx
    4112:	48 8d 15 67 c4 00 00 	lea    0xc467(%rip),%rdx        # 10580 <cpu>
    4119:	0f b6 c0             	movzbl %al,%eax
    411c:	89 04 8a             	mov    %eax,(%rdx,%rcx,4)
    411f:	41 5b                	pop    %r11
    4121:	5b                   	pop    %rbx
    4122:	e9 1a f5 ff ff       	jmp    3641 <decode_exec+0x2d1>
    4127:	66 0f 1f 84 00 00 00 	nopw   0x0(%rax,%rax,1)
    412e:	00 00 

0000000000004130 <isa_exec_once>:
    4130:	f3 0f 1e fa          	endbr64 
    4134:	8b 05 e6 c3 00 00    	mov    0xc3e6(%rip),%eax        # 10520 <break_flag>
    413a:	55                   	push   %rbp
    413b:	48 89 fd             	mov    %rdi,%rbp
    413e:	8b 7f 04             	mov    0x4(%rdi),%edi
    4141:	85 c0                	test   %eax,%eax
    4143:	74 2b                	je     4170 <isa_exec_once+0x40>
    4145:	8b 05 d5 c4 00 00    	mov    0xc4d5(%rip),%eax        # 10620 <replaced_inst>
    414b:	83 c7 04             	add    $0x4,%edi
    414e:	c7 05 c8 c3 00 00 00 	movl   $0x0,0xc3c8(%rip)        # 10520 <break_flag>
    4155:	00 00 00 
    4158:	89 7d 04             	mov    %edi,0x4(%rbp)
    415b:	48 89 ef             	mov    %rbp,%rdi
    415e:	89 45 0c             	mov    %eax,0xc(%rbp)
    4161:	5d                   	pop    %rbp
    4162:	e9 09 f2 ff ff       	jmp    3370 <decode_exec>
    4167:	66 0f 1f 84 00 00 00 	nopw   0x0(%rax,%rax,1)
    416e:	00 00 
    4170:	be 04 00 00 00       	mov    $0x4,%esi
    4175:	e8 c6 36 00 00       	call   7840 <vaddr_ifetch>
    417a:	83 45 04 04          	addl   $0x4,0x4(%rbp)
    417e:	48 89 ef             	mov    %rbp,%rdi
    4181:	89 45 0c             	mov    %eax,0xc(%rbp)
    4184:	5d                   	pop    %rbp
    4185:	e9 e6 f1 ff ff       	jmp    3370 <decode_exec>
    418a:	66 0f 1f 44 00 00    	nopw   0x0(%rax,%rax,1)

0000000000004190 <isa_difftest_checkregs>:
    4190:	f3 0f 1e fa          	endbr64 
    4194:	b8 01 00 00 00       	mov    $0x1,%eax
    4199:	c3                   	ret    
    419a:	66 0f 1f 44 00 00    	nopw   0x0(%rax,%rax,1)

00000000000041a0 <isa_difftest_attach>:
    41a0:	f3 0f 1e fa          	endbr64 
    41a4:	c3                   	ret    
    41a5:	66 2e 0f 1f 84 00 00 	cs nopw 0x0(%rax,%rax,1)
    41ac:	00 00 00 
    41af:	90                   	nop

00000000000041b0 <isa_mmu_translate>:
    41b0:	f3 0f 1e fa          	endbr64 
    41b4:	b8 01 00 00 00       	mov    $0x1,%eax
    41b9:	c3                   	ret    
    41ba:	66 0f 1f 44 00 00    	nopw   0x0(%rax,%rax,1)

00000000000041c0 <isa_raise_intr>:
    41c0:	f3 0f 1e fa          	endbr64 
    41c4:	31 c0                	xor    %eax,%eax
    41c6:	c3                   	ret    
    41c7:	66 0f 1f 84 00 00 00 	nopw   0x0(%rax,%rax,1)
    41ce:	00 00 

00000000000041d0 <isa_query_intr>:
    41d0:	f3 0f 1e fa          	endbr64 
    41d4:	b8 ff ff ff ff       	mov    $0xffffffff,%eax
    41d9:	c3                   	ret    
    41da:	66 0f 1f 44 00 00    	nopw   0x0(%rax,%rax,1)

00000000000041e0 <isa_reg_display>:
    41e0:	f3 0f 1e fa          	endbr64 
    41e4:	41 55                	push   %r13
    41e6:	4c 8d 2d 93 c3 00 00 	lea    0xc393(%rip),%r13        # 10580 <cpu>
    41ed:	41 54                	push   %r12
    41ef:	4c 8d 25 2a 9e 00 00 	lea    0x9e2a(%rip),%r12        # e020 <regs>
    41f6:	55                   	push   %rbp
    41f7:	48 8d 2d 82 51 00 00 	lea    0x5182(%rip),%rbp        # 9380 <__PRETTY_FUNCTION__.1+0x198>
    41fe:	53                   	push   %rbx
    41ff:	31 db                	xor    %ebx,%ebx
    4201:	48 83 ec 08          	sub    $0x8,%rsp
    4205:	0f 1f 00             	nopl   (%rax)
    4208:	49 8b 0c dc          	mov    (%r12,%rbx,8),%rcx
    420c:	45 8b 44 9d 00       	mov    0x0(%r13,%rbx,4),%r8d
    4211:	89 da                	mov    %ebx,%edx
    4213:	48 89 ee             	mov    %rbp,%rsi
    4216:	bf 01 00 00 00       	mov    $0x1,%edi
    421b:	31 c0                	xor    %eax,%eax
    421d:	48 83 c3 01          	add    $0x1,%rbx
    4221:	e8 2a e1 ff ff       	call   2350 <__printf_chk@plt>
    4226:	48 83 fb 20          	cmp    $0x20,%rbx
    422a:	75 dc                	jne    4208 <isa_reg_display+0x28>
    422c:	48 83 c4 08          	add    $0x8,%rsp
    4230:	5b                   	pop    %rbx
    4231:	5d                   	pop    %rbp
    4232:	41 5c                	pop    %r12
    4234:	41 5d                	pop    %r13
    4236:	c3                   	ret    
    4237:	66 0f 1f 84 00 00 00 	nopw   0x0(%rax,%rax,1)
    423e:	00 00 

0000000000004240 <isa_reg_str2val>:
    4240:	f3 0f 1e fa          	endbr64 
    4244:	41 56                	push   %r14
    4246:	41 55                	push   %r13
    4248:	49 89 f5             	mov    %rsi,%r13
    424b:	48 8d 35 3f 51 00 00 	lea    0x513f(%rip),%rsi        # 9391 <__PRETTY_FUNCTION__.1+0x1a9>
    4252:	41 54                	push   %r12
    4254:	55                   	push   %rbp
    4255:	48 89 fd             	mov    %rdi,%rbp
    4258:	53                   	push   %rbx
    4259:	48 83 ec 20          	sub    $0x20,%rsp
    425d:	64 48 8b 04 25 28 00 	mov    %fs:0x28,%rax
    4264:	00 00 
    4266:	48 89 44 24 18       	mov    %rax,0x18(%rsp)
    426b:	31 c0                	xor    %eax,%eax
    426d:	e8 1e e3 ff ff       	call   2590 <strcmp@plt>
    4272:	85 c0                	test   %eax,%eax
    4274:	0f 84 ae 00 00 00    	je     4328 <isa_reg_str2val+0xe8>
    427a:	80 7d 00 24          	cmpb   $0x24,0x0(%rbp)
    427e:	0f 84 7c 00 00 00    	je     4300 <isa_reg_str2val+0xc0>
    4284:	4c 8d 64 24 0e       	lea    0xe(%rsp),%r12
    4289:	48 89 ef             	mov    %rbp,%rdi
    428c:	31 c0                	xor    %eax,%eax
    428e:	bb 01 00 00 00       	mov    $0x1,%ebx
    4293:	4c 89 e2             	mov    %r12,%rdx
    4296:	48 8d 35 f8 50 00 00 	lea    0x50f8(%rip),%rsi        # 9395 <__PRETTY_FUNCTION__.1+0x1ad>
    429d:	4c 8d 35 7c 9d 00 00 	lea    0x9d7c(%rip),%r14        # e020 <regs>
    42a4:	e8 e7 e1 ff ff       	call   2490 <__isoc99_sscanf@plt>
    42a9:	eb 0f                	jmp    42ba <isa_reg_str2val+0x7a>
    42ab:	0f 1f 44 00 00       	nopl   0x0(%rax,%rax,1)
    42b0:	48 83 c3 01          	add    $0x1,%rbx
    42b4:	48 83 fb 20          	cmp    $0x20,%rbx
    42b8:	74 7e                	je     4338 <isa_reg_str2val+0xf8>
    42ba:	49 8b 34 de          	mov    (%r14,%rbx,8),%rsi
    42be:	4c 89 e7             	mov    %r12,%rdi
    42c1:	48 63 eb             	movslq %ebx,%rbp
    42c4:	e8 c7 e2 ff ff       	call   2590 <strcmp@plt>
    42c9:	85 c0                	test   %eax,%eax
    42cb:	75 e3                	jne    42b0 <isa_reg_str2val+0x70>
    42cd:	48 8d 05 ac c2 00 00 	lea    0xc2ac(%rip),%rax        # 10580 <cpu>
    42d4:	41 c6 45 00 01       	movb   $0x1,0x0(%r13)
    42d9:	8b 04 a8             	mov    (%rax,%rbp,4),%eax
    42dc:	48 8b 54 24 18       	mov    0x18(%rsp),%rdx
    42e1:	64 48 2b 14 25 28 00 	sub    %fs:0x28,%rdx
    42e8:	00 00 
    42ea:	75 55                	jne    4341 <isa_reg_str2val+0x101>
    42ec:	48 83 c4 20          	add    $0x20,%rsp
    42f0:	5b                   	pop    %rbx
    42f1:	5d                   	pop    %rbp
    42f2:	41 5c                	pop    %r12
    42f4:	41 5d                	pop    %r13
    42f6:	41 5e                	pop    %r14
    42f8:	c3                   	ret    
    42f9:	0f 1f 80 00 00 00 00 	nopl   0x0(%rax)
    4300:	80 7d 01 30          	cmpb   $0x30,0x1(%rbp)
    4304:	0f 85 7a ff ff ff    	jne    4284 <isa_reg_str2val+0x44>
    430a:	80 7d 02 00          	cmpb   $0x0,0x2(%rbp)
    430e:	0f 85 70 ff ff ff    	jne    4284 <isa_reg_str2val+0x44>
    4314:	41 c6 45 00 01       	movb   $0x1,0x0(%r13)
    4319:	8b 05 61 c2 00 00    	mov    0xc261(%rip),%eax        # 10580 <cpu>
    431f:	eb bb                	jmp    42dc <isa_reg_str2val+0x9c>
    4321:	0f 1f 80 00 00 00 00 	nopl   0x0(%rax)
    4328:	41 c6 45 00 01       	movb   $0x1,0x0(%r13)
    432d:	8b 05 cd c2 00 00    	mov    0xc2cd(%rip),%eax        # 10600 <cpu+0x80>
    4333:	eb a7                	jmp    42dc <isa_reg_str2val+0x9c>
    4335:	0f 1f 00             	nopl   (%rax)
    4338:	41 c6 45 00 00       	movb   $0x0,0x0(%r13)
    433d:	31 c0                	xor    %eax,%eax
    433f:	eb 9b                	jmp    42dc <isa_reg_str2val+0x9c>
    4341:	e8 7a e1 ff ff       	call   24c0 <__stack_chk_fail@plt>
    4346:	66 2e 0f 1f 84 00 00 	cs nopw 0x0(%rax,%rax,1)
    434d:	00 00 00 

0000000000004350 <init_isa>:
    4350:	f3 0f 1e fa          	endbr64 
    4354:	48 83 ec 08          	sub    $0x8,%rsp
    4358:	bf 00 00 00 1c       	mov    $0x1c000000,%edi
    435d:	e8 3e 35 00 00       	call   78a0 <guest_to_host>
    4362:	66 0f 6f 05 a6 50 00 	movdqa 0x50a6(%rip),%xmm0        # 9410 <__PRETTY_FUNCTION__.1+0x228>
    4369:	00 
    436a:	c7 40 10 ef be ad de 	movl   $0xdeadbeef,0x10(%rax)
    4371:	0f 11 00             	movups %xmm0,(%rax)
    4374:	48 8b 05 85 50 00 00 	mov    0x5085(%rip),%rax        # 9400 <__PRETTY_FUNCTION__.1+0x218>
    437b:	66 0f 6f 05 7d 50 00 	movdqa 0x507d(%rip),%xmm0        # 9400 <__PRETTY_FUNCTION__.1+0x218>
    4382:	00 
    4383:	c7 05 f3 c1 00 00 00 	movl   $0x0,0xc1f3(%rip)        # 10580 <cpu>
    438a:	00 00 00 
    438d:	48 89 05 60 c2 00 00 	mov    %rax,0xc260(%rip)        # 105f4 <cpu+0x74>
    4394:	48 8b 05 85 50 00 00 	mov    0x5085(%rip),%rax        # 9420 <__PRETTY_FUNCTION__.1+0x238>
    439b:	0f 11 05 e2 c1 00 00 	movups %xmm0,0xc1e2(%rip)        # 10584 <cpu+0x4>
    43a2:	48 89 05 53 c2 00 00 	mov    %rax,0xc253(%rip)        # 105fc <cpu+0x7c>
    43a9:	0f 11 05 e4 c1 00 00 	movups %xmm0,0xc1e4(%rip)        # 10594 <cpu+0x14>
    43b0:	0f 11 05 ed c1 00 00 	movups %xmm0,0xc1ed(%rip)        # 105a4 <cpu+0x24>
    43b7:	0f 11 05 f6 c1 00 00 	movups %xmm0,0xc1f6(%rip)        # 105b4 <cpu+0x34>
    43be:	0f 11 05 ff c1 00 00 	movups %xmm0,0xc1ff(%rip)        # 105c4 <cpu+0x44>
    43c5:	0f 11 05 08 c2 00 00 	movups %xmm0,0xc208(%rip)        # 105d4 <cpu+0x54>
    43cc:	0f 11 05 11 c2 00 00 	movups %xmm0,0xc211(%rip)        # 105e4 <cpu+0x64>
    43d3:	48 83 c4 08          	add    $0x8,%rsp
    43d7:	c3                   	ret    
    43d8:	0f 1f 84 00 00 00 00 	nopl   0x0(%rax,%rax,1)
    43df:	00 

00000000000043e0 <init_difftest>:
    43e0:	f3 0f 1e fa          	endbr64 
    43e4:	c3                   	ret    
    43e5:	66 2e 0f 1f 84 00 00 	cs nopw 0x0(%rax,%rax,1)
    43ec:	00 00 00 
    43ef:	90                   	nop

00000000000043f0 <difftest_memcpy>:
    43f0:	f3 0f 1e fa          	endbr64 
    43f4:	41 57                	push   %r15
    43f6:	41 56                	push   %r14
    43f8:	41 55                	push   %r13
    43fa:	41 54                	push   %r12
    43fc:	49 89 d4             	mov    %rdx,%r12
    43ff:	55                   	push   %rbp
    4400:	89 fd                	mov    %edi,%ebp
    4402:	53                   	push   %rbx
    4403:	48 89 f3             	mov    %rsi,%rbx
    4406:	48 83 ec 08          	sub    $0x8,%rsp
    440a:	84 c9                	test   %cl,%cl
    440c:	0f 84 7e 00 00 00    	je     4490 <difftest_memcpy+0xa0>
    4412:	49 89 f5             	mov    %rsi,%r13
    4415:	48 83 fa 03          	cmp    $0x3,%rdx
    4419:	76 37                	jbe    4452 <difftest_memcpy+0x62>
    441b:	4c 8d 72 fc          	lea    -0x4(%rdx),%r14
    441f:	41 89 ff             	mov    %edi,%r15d
    4422:	49 c1 ee 02          	shr    $0x2,%r14
    4426:	41 29 f7             	sub    %esi,%r15d
    4429:	4e 8d 6c b6 04       	lea    0x4(%rsi,%r14,4),%r13
    442e:	66 90                	xchg   %ax,%ax
    4430:	8b 13                	mov    (%rbx),%edx
    4432:	41 8d 3c 1f          	lea    (%r15,%rbx,1),%edi
    4436:	be 04 00 00 00       	mov    $0x4,%esi
    443b:	48 83 c3 04          	add    $0x4,%rbx
    443f:	e8 2c 36 00 00       	call   7a70 <paddr_write>
    4444:	4c 39 eb             	cmp    %r13,%rbx
    4447:	75 e7                	jne    4430 <difftest_memcpy+0x40>
    4449:	41 83 e4 03          	and    $0x3,%r12d
    444d:	42 8d 6c b5 04       	lea    0x4(%rbp,%r14,4),%ebp
    4452:	49 83 fc 01          	cmp    $0x1,%r12
    4456:	76 1c                	jbe    4474 <difftest_memcpy+0x84>
    4458:	41 0f b7 55 00       	movzwl 0x0(%r13),%edx
    445d:	89 ef                	mov    %ebp,%edi
    445f:	be 02 00 00 00       	mov    $0x2,%esi
    4464:	49 83 ec 02          	sub    $0x2,%r12
    4468:	83 c5 02             	add    $0x2,%ebp
    446b:	49 83 c5 02          	add    $0x2,%r13
    446f:	e8 fc 35 00 00       	call   7a70 <paddr_write>
    4474:	4d 85 e4             	test   %r12,%r12
    4477:	0f 85 9b 00 00 00    	jne    4518 <difftest_memcpy+0x128>
    447d:	48 83 c4 08          	add    $0x8,%rsp
    4481:	5b                   	pop    %rbx
    4482:	5d                   	pop    %rbp
    4483:	41 5c                	pop    %r12
    4485:	41 5d                	pop    %r13
    4487:	41 5e                	pop    %r14
    4489:	41 5f                	pop    %r15
    448b:	c3                   	ret    
    448c:	0f 1f 40 00          	nopl   0x0(%rax)
    4490:	48 83 fa 03          	cmp    $0x3,%rdx
    4494:	0f 86 a6 00 00 00    	jbe    4540 <difftest_memcpy+0x150>
    449a:	4c 8d 72 fc          	lea    -0x4(%rdx),%r14
    449e:	41 89 ff             	mov    %edi,%r15d
    44a1:	49 c1 ee 02          	shr    $0x2,%r14
    44a5:	41 29 f7             	sub    %esi,%r15d
    44a8:	4e 8d 6c b6 04       	lea    0x4(%rsi,%r14,4),%r13
    44ad:	0f 1f 00             	nopl   (%rax)
    44b0:	41 8d 3c 1f          	lea    (%r15,%rbx,1),%edi
    44b4:	be 04 00 00 00       	mov    $0x4,%esi
    44b9:	48 83 c3 04          	add    $0x4,%rbx
    44bd:	e8 ee 34 00 00       	call   79b0 <paddr_read>
    44c2:	89 43 fc             	mov    %eax,-0x4(%rbx)
    44c5:	49 39 dd             	cmp    %rbx,%r13
    44c8:	75 e6                	jne    44b0 <difftest_memcpy+0xc0>
    44ca:	41 83 e4 03          	and    $0x3,%r12d
    44ce:	42 8d 6c b5 04       	lea    0x4(%rbp,%r14,4),%ebp
    44d3:	49 83 fc 01          	cmp    $0x1,%r12
    44d7:	76 1c                	jbe    44f5 <difftest_memcpy+0x105>
    44d9:	89 ef                	mov    %ebp,%edi
    44db:	be 02 00 00 00       	mov    $0x2,%esi
    44e0:	49 83 ec 02          	sub    $0x2,%r12
    44e4:	83 c5 02             	add    $0x2,%ebp
    44e7:	e8 c4 34 00 00       	call   79b0 <paddr_read>
    44ec:	49 83 c5 02          	add    $0x2,%r13
    44f0:	66 41 89 45 fe       	mov    %ax,-0x2(%r13)
    44f5:	4d 85 e4             	test   %r12,%r12
    44f8:	74 83                	je     447d <difftest_memcpy+0x8d>
    44fa:	66 0f 1f 44 00 00    	nopw   0x0(%rax,%rax,1)
    4500:	be 01 00 00 00       	mov    $0x1,%esi
    4505:	89 ef                	mov    %ebp,%edi
    4507:	e8 a4 34 00 00       	call   79b0 <paddr_read>
    450c:	41 88 45 00          	mov    %al,0x0(%r13)
    4510:	eb ee                	jmp    4500 <difftest_memcpy+0x110>
    4512:	66 0f 1f 44 00 00    	nopw   0x0(%rax,%rax,1)
    4518:	41 0f b6 55 00       	movzbl 0x0(%r13),%edx
    451d:	48 83 c4 08          	add    $0x8,%rsp
    4521:	89 ef                	mov    %ebp,%edi
    4523:	be 01 00 00 00       	mov    $0x1,%esi
    4528:	5b                   	pop    %rbx
    4529:	5d                   	pop    %rbp
    452a:	41 5c                	pop    %r12
    452c:	41 5d                	pop    %r13
    452e:	41 5e                	pop    %r14
    4530:	41 5f                	pop    %r15
    4532:	e9 39 35 00 00       	jmp    7a70 <paddr_write>
    4537:	66 0f 1f 84 00 00 00 	nopw   0x0(%rax,%rax,1)
    453e:	00 00 
    4540:	49 89 f5             	mov    %rsi,%r13
    4543:	eb 8e                	jmp    44d3 <difftest_memcpy+0xe3>
    4545:	66 66 2e 0f 1f 84 00 	data16 cs nopw 0x0(%rax,%rax,1)
    454c:	00 00 00 00 

0000000000004550 <difftest_regcpy>:
    4550:	f3 0f 1e fa          	endbr64 
    4554:	48 8b 17             	mov    (%rdi),%rdx
    4557:	40 84 f6             	test   %sil,%sil
    455a:	0f 85 80 00 00 00    	jne    45e0 <difftest_regcpy+0x90>
    4560:	48 8d 0d 1d c0 00 00 	lea    0xc01d(%rip),%rcx        # 10584 <cpu+0x4>
    4567:	48 89 d0             	mov    %rdx,%rax
    456a:	48 29 c8             	sub    %rcx,%rax
    456d:	48 83 f8 08          	cmp    $0x8,%rax
    4571:	0f 86 0d 01 00 00    	jbe    4684 <difftest_regcpy+0x134>
    4577:	f3 0f 6f 05 01 c0 00 	movdqu 0xc001(%rip),%xmm0        # 10580 <cpu>
    457e:	00 
    457f:	0f 11 02             	movups %xmm0,(%rdx)
    4582:	f3 0f 6f 0d 06 c0 00 	movdqu 0xc006(%rip),%xmm1        # 10590 <cpu+0x10>
    4589:	00 
    458a:	0f 11 4a 10          	movups %xmm1,0x10(%rdx)
    458e:	f3 0f 6f 15 0a c0 00 	movdqu 0xc00a(%rip),%xmm2        # 105a0 <cpu+0x20>
    4595:	00 
    4596:	0f 11 52 20          	movups %xmm2,0x20(%rdx)
    459a:	f3 0f 6f 1d 0e c0 00 	movdqu 0xc00e(%rip),%xmm3        # 105b0 <cpu+0x30>
    45a1:	00 
    45a2:	0f 11 5a 30          	movups %xmm3,0x30(%rdx)
    45a6:	f3 0f 6f 25 12 c0 00 	movdqu 0xc012(%rip),%xmm4        # 105c0 <cpu+0x40>
    45ad:	00 
    45ae:	0f 11 62 40          	movups %xmm4,0x40(%rdx)
    45b2:	f3 0f 6f 2d 16 c0 00 	movdqu 0xc016(%rip),%xmm5        # 105d0 <cpu+0x50>
    45b9:	00 
    45ba:	0f 11 6a 50          	movups %xmm5,0x50(%rdx)
    45be:	f3 0f 6f 35 1a c0 00 	movdqu 0xc01a(%rip),%xmm6        # 105e0 <cpu+0x60>
    45c5:	00 
    45c6:	0f 11 72 60          	movups %xmm6,0x60(%rdx)
    45ca:	f3 0f 6f 3d 1e c0 00 	movdqu 0xc01e(%rip),%xmm7        # 105f0 <cpu+0x70>
    45d1:	00 
    45d2:	0f 11 7a 70          	movups %xmm7,0x70(%rdx)
    45d6:	8b 05 24 c0 00 00    	mov    0xc024(%rip),%eax        # 10600 <cpu+0x80>
    45dc:	89 47 08             	mov    %eax,0x8(%rdi)
    45df:	c3                   	ret    
    45e0:	48 8d 0d 99 bf 00 00 	lea    0xbf99(%rip),%rcx        # 10580 <cpu>
    45e7:	48 8d 72 04          	lea    0x4(%rdx),%rsi
    45eb:	48 89 c8             	mov    %rcx,%rax
    45ee:	48 29 f0             	sub    %rsi,%rax
    45f1:	48 83 f8 08          	cmp    $0x8,%rax
    45f5:	76 69                	jbe    4660 <difftest_regcpy+0x110>
    45f7:	f3 0f 6f 02          	movdqu (%rdx),%xmm0
    45fb:	f3 0f 6f 4a 10       	movdqu 0x10(%rdx),%xmm1
    4600:	f3 0f 6f 52 20       	movdqu 0x20(%rdx),%xmm2
    4605:	f3 0f 6f 5a 30       	movdqu 0x30(%rdx),%xmm3
    460a:	f3 0f 6f 62 40       	movdqu 0x40(%rdx),%xmm4
    460f:	f3 0f 6f 6a 50       	movdqu 0x50(%rdx),%xmm5
    4614:	0f 11 05 65 bf 00 00 	movups %xmm0,0xbf65(%rip)        # 10580 <cpu>
    461b:	f3 0f 6f 72 60       	movdqu 0x60(%rdx),%xmm6
    4620:	f3 0f 6f 7a 70       	movdqu 0x70(%rdx),%xmm7
    4625:	0f 11 0d 64 bf 00 00 	movups %xmm1,0xbf64(%rip)        # 10590 <cpu+0x10>
    462c:	0f 11 15 6d bf 00 00 	movups %xmm2,0xbf6d(%rip)        # 105a0 <cpu+0x20>
    4633:	0f 11 1d 76 bf 00 00 	movups %xmm3,0xbf76(%rip)        # 105b0 <cpu+0x30>
    463a:	0f 11 25 7f bf 00 00 	movups %xmm4,0xbf7f(%rip)        # 105c0 <cpu+0x40>
    4641:	0f 11 2d 88 bf 00 00 	movups %xmm5,0xbf88(%rip)        # 105d0 <cpu+0x50>
    4648:	0f 11 35 91 bf 00 00 	movups %xmm6,0xbf91(%rip)        # 105e0 <cpu+0x60>
    464f:	0f 11 3d 9a bf 00 00 	movups %xmm7,0xbf9a(%rip)        # 105f0 <cpu+0x70>
    4656:	8b 47 08             	mov    0x8(%rdi),%eax
    4659:	89 05 a1 bf 00 00    	mov    %eax,0xbfa1(%rip)        # 10600 <cpu+0x80>
    465f:	c3                   	ret    
    4660:	31 c0                	xor    %eax,%eax
    4662:	66 0f 1f 44 00 00    	nopw   0x0(%rax,%rax,1)
    4668:	8b 34 02             	mov    (%rdx,%rax,1),%esi
    466b:	89 34 01             	mov    %esi,(%rcx,%rax,1)
    466e:	48 83 c0 04          	add    $0x4,%rax
    4672:	48 3d 80 00 00 00    	cmp    $0x80,%rax
    4678:	75 ee                	jne    4668 <difftest_regcpy+0x118>
    467a:	8b 47 08             	mov    0x8(%rdi),%eax
    467d:	89 05 7d bf 00 00    	mov    %eax,0xbf7d(%rip)        # 10600 <cpu+0x80>
    4683:	c3                   	ret    
    4684:	31 c0                	xor    %eax,%eax
    4686:	48 8d 0d f3 be 00 00 	lea    0xbef3(%rip),%rcx        # 10580 <cpu>
    468d:	0f 1f 00             	nopl   (%rax)
    4690:	8b 34 01             	mov    (%rcx,%rax,1),%esi
    4693:	89 34 02             	mov    %esi,(%rdx,%rax,1)
    4696:	48 83 c0 04          	add    $0x4,%rax
    469a:	48 3d 80 00 00 00    	cmp    $0x80,%rax
    46a0:	75 ee                	jne    4690 <difftest_regcpy+0x140>
    46a2:	8b 05 58 bf 00 00    	mov    0xbf58(%rip),%eax        # 10600 <cpu+0x80>
    46a8:	89 47 08             	mov    %eax,0x8(%rdi)
    46ab:	c3                   	ret    
    46ac:	0f 1f 40 00          	nopl   0x0(%rax)

00000000000046b0 <difftest_regcmp>:
    46b0:	f3 0f 1e fa          	endbr64 
    46b4:	41 57                	push   %r15
    46b6:	b8 01 00 00 00       	mov    $0x1,%eax
    46bb:	49 89 ff             	mov    %rdi,%r15
    46be:	41 56                	push   %r14
    46c0:	41 55                	push   %r13
    46c2:	41 54                	push   %r12
    46c4:	55                   	push   %rbp
    46c5:	53                   	push   %rbx
    46c6:	48 83 ec 18          	sub    $0x18,%rsp
    46ca:	8b 0d 30 bf 00 00    	mov    0xbf30(%rip),%ecx        # 10600 <cpu+0x80>
    46d0:	39 4f 08             	cmp    %ecx,0x8(%rdi)
    46d3:	74 61                	je     4736 <difftest_regcmp+0x86>
    46d5:	48 8d 35 4c 4d 00 00 	lea    0x4d4c(%rip),%rsi        # 9428 <__PRETTY_FUNCTION__.1+0x240>
    46dc:	bf 01 00 00 00       	mov    $0x1,%edi
    46e1:	31 c0                	xor    %eax,%eax
    46e3:	e8 68 dc ff ff       	call   2350 <__printf_chk@plt>
    46e8:	48 8d 2d 4a 4d 00 00 	lea    0x4d4a(%rip),%rbp        # 9439 <__PRETTY_FUNCTION__.1+0x251>
    46ef:	8b 15 0b bf 00 00    	mov    0xbf0b(%rip),%edx        # 10600 <cpu+0x80>
    46f5:	31 c0                	xor    %eax,%eax
    46f7:	48 89 ee             	mov    %rbp,%rsi
    46fa:	bf 01 00 00 00       	mov    $0x1,%edi
    46ff:	e8 4c dc ff ff       	call   2350 <__printf_chk@plt>
    4704:	48 8d 35 3e 4d 00 00 	lea    0x4d3e(%rip),%rsi        # 9449 <__PRETTY_FUNCTION__.1+0x261>
    470b:	bf 01 00 00 00       	mov    $0x1,%edi
    4710:	31 c0                	xor    %eax,%eax
    4712:	e8 39 dc ff ff       	call   2350 <__printf_chk@plt>
    4717:	41 8b 57 08          	mov    0x8(%r15),%edx
    471b:	48 89 ee             	mov    %rbp,%rsi
    471e:	31 c0                	xor    %eax,%eax
    4720:	bf 01 00 00 00       	mov    $0x1,%edi
    4725:	e8 26 dc ff ff       	call   2350 <__printf_chk@plt>
    472a:	bf 0a 00 00 00       	mov    $0xa,%edi
    472f:	e8 4c de ff ff       	call   2580 <putchar@plt>
    4734:	31 c0                	xor    %eax,%eax
    4736:	31 db                	xor    %ebx,%ebx
    4738:	4c 8d 25 41 be 00 00 	lea    0xbe41(%rip),%r12        # 10580 <cpu>
    473f:	4c 8d 35 0a 4d 00 00 	lea    0x4d0a(%rip),%r14        # 9450 <__PRETTY_FUNCTION__.1+0x268>
    4746:	4c 8d 2d 06 4d 00 00 	lea    0x4d06(%rip),%r13        # 9453 <__PRETTY_FUNCTION__.1+0x26b>
    474d:	48 8d 2d e5 4c 00 00 	lea    0x4ce5(%rip),%rbp        # 9439 <__PRETTY_FUNCTION__.1+0x251>
    4754:	0f 1f 40 00          	nopl   0x0(%rax)
    4758:	49 8b 0f             	mov    (%r15),%rcx
    475b:	41 8b 3c 9c          	mov    (%r12,%rbx,4),%edi
    475f:	89 5c 24 0c          	mov    %ebx,0xc(%rsp)
    4763:	39 3c 99             	cmp    %edi,(%rcx,%rbx,4)
    4766:	74 7c                	je     47e4 <difftest_regcmp+0x134>
    4768:	4c 89 f6             	mov    %r14,%rsi
    476b:	bf 01 00 00 00       	mov    $0x1,%edi
    4770:	31 c0                	xor    %eax,%eax
    4772:	e8 d9 db ff ff       	call   2350 <__printf_chk@plt>
    4777:	8b 54 24 0c          	mov    0xc(%rsp),%edx
    477b:	4c 89 ee             	mov    %r13,%rsi
    477e:	31 c0                	xor    %eax,%eax
    4780:	bf 01 00 00 00       	mov    $0x1,%edi
    4785:	e8 c6 db ff ff       	call   2350 <__printf_chk@plt>
    478a:	48 8d 35 99 4c 00 00 	lea    0x4c99(%rip),%rsi        # 942a <__PRETTY_FUNCTION__.1+0x242>
    4791:	bf 01 00 00 00       	mov    $0x1,%edi
    4796:	31 c0                	xor    %eax,%eax
    4798:	e8 b3 db ff ff       	call   2350 <__printf_chk@plt>
    479d:	41 8b 14 9c          	mov    (%r12,%rbx,4),%edx
    47a1:	48 89 ee             	mov    %rbp,%rsi
    47a4:	31 c0                	xor    %eax,%eax
    47a6:	bf 01 00 00 00       	mov    $0x1,%edi
    47ab:	e8 a0 db ff ff       	call   2350 <__printf_chk@plt>
    47b0:	48 8d 35 92 4c 00 00 	lea    0x4c92(%rip),%rsi        # 9449 <__PRETTY_FUNCTION__.1+0x261>
    47b7:	bf 01 00 00 00       	mov    $0x1,%edi
    47bc:	31 c0                	xor    %eax,%eax
    47be:	e8 8d db ff ff       	call   2350 <__printf_chk@plt>
    47c3:	49 8b 07             	mov    (%r15),%rax
    47c6:	48 89 ee             	mov    %rbp,%rsi
    47c9:	bf 01 00 00 00       	mov    $0x1,%edi
    47ce:	8b 14 98             	mov    (%rax,%rbx,4),%edx
    47d1:	31 c0                	xor    %eax,%eax
    47d3:	e8 78 db ff ff       	call   2350 <__printf_chk@plt>
    47d8:	bf 0a 00 00 00       	mov    $0xa,%edi
    47dd:	e8 9e dd ff ff       	call   2580 <putchar@plt>
    47e2:	31 c0                	xor    %eax,%eax
    47e4:	48 83 c3 01          	add    $0x1,%rbx
    47e8:	48 83 fb 20          	cmp    $0x20,%rbx
    47ec:	0f 85 66 ff ff ff    	jne    4758 <difftest_regcmp+0xa8>
    47f2:	48 83 c4 18          	add    $0x18,%rsp
    47f6:	5b                   	pop    %rbx
    47f7:	5d                   	pop    %rbp
    47f8:	41 5c                	pop    %r12
    47fa:	41 5d                	pop    %r13
    47fc:	41 5e                	pop    %r14
    47fe:	41 5f                	pop    %r15
    4800:	c3                   	ret    
    4801:	66 66 2e 0f 1f 84 00 	data16 cs nopw 0x0(%rax,%rax,1)
    4808:	00 00 00 00 
    480c:	0f 1f 40 00          	nopl   0x0(%rax)

0000000000004810 <difftest_exec>:
    4810:	f3 0f 1e fa          	endbr64 
    4814:	e9 d7 02 00 00       	jmp    4af0 <cpu_exec>
    4819:	0f 1f 80 00 00 00 00 	nopl   0x0(%rax)

0000000000004820 <difftest_raise_intr>:
    4820:	f3 0f 1e fa          	endbr64 
    4824:	50                   	push   %rax
    4825:	58                   	pop    %rax
    4826:	48 8d 0d 53 4c 00 00 	lea    0x4c53(%rip),%rcx        # 9480 <__PRETTY_FUNCTION__.0>
    482d:	ba 85 00 00 00       	mov    $0x85,%edx
    4832:	48 8d 35 28 4c 00 00 	lea    0x4c28(%rip),%rsi        # 9461 <__PRETTY_FUNCTION__.1+0x279>
    4839:	48 8d 3d f0 47 00 00 	lea    0x47f0(%rip),%rdi        # 9030 <_IO_stdin_used+0x30>
    4840:	48 83 ec 08          	sub    $0x8,%rsp
    4844:	e8 b7 db ff ff       	call   2400 <__assert_fail@plt>
    4849:	0f 1f 80 00 00 00 00 	nopl   0x0(%rax)

0000000000004850 <difftest_init>:
    4850:	f3 0f 1e fa          	endbr64 
    4854:	48 83 ec 08          	sub    $0x8,%rsp
    4858:	31 c0                	xor    %eax,%eax
    485a:	e8 c1 2f 00 00       	call   7820 <init_rand>
    485f:	31 c0                	xor    %eax,%eax
    4861:	e8 ea fa ff ff       	call   4350 <init_isa>
    4866:	31 c0                	xor    %eax,%eax
    4868:	e8 73 30 00 00       	call   78e0 <init_mem>
    486d:	31 d2                	xor    %edx,%edx
    486f:	be 00 00 00 1c       	mov    $0x1c000000,%esi
    4874:	31 ff                	xor    %edi,%edi
    4876:	48 83 c4 08          	add    $0x8,%rsp
    487a:	e9 61 3d 00 00       	jmp    85e0 <set_nemu_state>
    487f:	90                   	nop

0000000000004880 <statistic>:
    4880:	41 55                	push   %r13
    4882:	48 8d 35 c7 54 00 00 	lea    0x54c7(%rip),%rsi        # 9d50 <__PRETTY_FUNCTION__.0+0x200>
    4889:	bf 01 00 00 00       	mov    $0x1,%edi
    488e:	4c 8d 2d 5b 4c 00 00 	lea    0x4c5b(%rip),%r13        # 94f0 <__PRETTY_FUNCTION__.0+0x70>
    4895:	41 54                	push   %r12
    4897:	4c 8d 25 f6 4b 00 00 	lea    0x4bf6(%rip),%r12        # 9494 <__PRETTY_FUNCTION__.0+0x14>
    489e:	48 83 ec 08          	sub    $0x8,%rsp
    48a2:	e8 79 db ff ff       	call   2420 <setlocale@plt>
    48a7:	31 c0                	xor    %eax,%eax
    48a9:	b9 7a 00 00 00       	mov    $0x7a,%ecx
    48ae:	4c 89 e2             	mov    %r12,%rdx
    48b1:	4c 8b 0d 50 bd 00 00 	mov    0xbd50(%rip),%r9        # 10608 <g_timer>
    48b8:	4c 8d 05 d9 4d 00 00 	lea    0x4dd9(%rip),%r8        # 9698 <__func__.1>
    48bf:	4c 89 ee             	mov    %r13,%rsi
    48c2:	bf 01 00 00 00       	mov    $0x1,%edi
    48c7:	e8 84 da ff ff       	call   2350 <__printf_chk@plt>
    48cc:	31 c0                	xor    %eax,%eax
    48ce:	e8 3d 2f 00 00       	call   7810 <log_enable>
    48d3:	84 c0                	test   %al,%al
    48d5:	0f 85 55 01 00 00    	jne    4a30 <statistic+0x1b0>
    48db:	31 c0                	xor    %eax,%eax
    48dd:	b9 7b 00 00 00       	mov    $0x7b,%ecx
    48e2:	4c 89 e2             	mov    %r12,%rdx
    48e5:	bf 01 00 00 00       	mov    $0x1,%edi
    48ea:	4c 8b 0d 6f bc 00 00 	mov    0xbc6f(%rip),%r9        # 10560 <g_nr_guest_inst>
    48f1:	4c 8d 2d 30 4c 00 00 	lea    0x4c30(%rip),%r13        # 9528 <__PRETTY_FUNCTION__.0+0xa8>
    48f8:	4c 8d 05 99 4d 00 00 	lea    0x4d99(%rip),%r8        # 9698 <__func__.1>
    48ff:	4c 89 ee             	mov    %r13,%rsi
    4902:	e8 49 da ff ff       	call   2350 <__printf_chk@plt>
    4907:	31 c0                	xor    %eax,%eax
    4909:	e8 02 2f 00 00       	call   7810 <log_enable>
    490e:	84 c0                	test   %al,%al
    4910:	0f 85 d2 00 00 00    	jne    49e8 <statistic+0x168>
    4916:	48 8b 0d eb bc 00 00 	mov    0xbceb(%rip),%rcx        # 10608 <g_timer>
    491d:	48 85 c9             	test   %rcx,%rcx
    4920:	74 56                	je     4978 <statistic+0xf8>
    4922:	31 d2                	xor    %edx,%edx
    4924:	4c 8d 2d 35 4c 00 00 	lea    0x4c35(%rip),%r13        # 9560 <__PRETTY_FUNCTION__.0+0xe0>
    492b:	4c 8d 05 66 4d 00 00 	lea    0x4d66(%rip),%r8        # 9698 <__func__.1>
    4932:	bf 01 00 00 00       	mov    $0x1,%edi
    4937:	48 69 05 1e bc 00 00 	imul   $0xf4240,0xbc1e(%rip),%rax        # 10560 <g_nr_guest_inst>
    493e:	40 42 0f 00 
    4942:	4c 89 ee             	mov    %r13,%rsi
    4945:	48 f7 f1             	div    %rcx
    4948:	b9 7c 00 00 00       	mov    $0x7c,%ecx
    494d:	4c 89 e2             	mov    %r12,%rdx
    4950:	49 89 c1             	mov    %rax,%r9
    4953:	31 c0                	xor    %eax,%eax
    4955:	e8 f6 d9 ff ff       	call   2350 <__printf_chk@plt>
    495a:	31 c0                	xor    %eax,%eax
    495c:	e8 af 2e 00 00       	call   7810 <log_enable>
    4961:	84 c0                	test   %al,%al
    4963:	0f 85 0f 01 00 00    	jne    4a78 <statistic+0x1f8>
    4969:	48 83 c4 08          	add    $0x8,%rsp
    496d:	41 5c                	pop    %r12
    496f:	41 5d                	pop    %r13
    4971:	c3                   	ret    
    4972:	66 0f 1f 44 00 00    	nopw   0x0(%rax,%rax,1)
    4978:	31 c0                	xor    %eax,%eax
    497a:	b9 7d 00 00 00       	mov    $0x7d,%ecx
    497f:	4c 89 e2             	mov    %r12,%rdx
    4982:	bf 01 00 00 00       	mov    $0x1,%edi
    4987:	4c 8d 2d 12 4c 00 00 	lea    0x4c12(%rip),%r13        # 95a0 <__PRETTY_FUNCTION__.0+0x120>
    498e:	4c 8d 05 03 4d 00 00 	lea    0x4d03(%rip),%r8        # 9698 <__func__.1>
    4995:	4c 89 ee             	mov    %r13,%rsi
    4998:	e8 b3 d9 ff ff       	call   2350 <__printf_chk@plt>
    499d:	31 c0                	xor    %eax,%eax
    499f:	e8 6c 2e 00 00       	call   7810 <log_enable>
    49a4:	84 c0                	test   %al,%al
    49a6:	74 c1                	je     4969 <statistic+0xe9>
    49a8:	48 8b 3d b9 0b 01 00 	mov    0x10bb9(%rip),%rdi        # 15568 <log_fp>
    49af:	4c 89 e1             	mov    %r12,%rcx
    49b2:	4c 89 ea             	mov    %r13,%rdx
    49b5:	31 c0                	xor    %eax,%eax
    49b7:	4c 8d 0d da 4c 00 00 	lea    0x4cda(%rip),%r9        # 9698 <__func__.1>
    49be:	41 b8 7d 00 00 00    	mov    $0x7d,%r8d
    49c4:	be 01 00 00 00       	mov    $0x1,%esi
    49c9:	e8 32 dc ff ff       	call   2600 <__fprintf_chk@plt>
    49ce:	48 8b 3d 93 0b 01 00 	mov    0x10b93(%rip),%rdi        # 15568 <log_fp>
    49d5:	48 83 c4 08          	add    $0x8,%rsp
    49d9:	41 5c                	pop    %r12
    49db:	41 5d                	pop    %r13
    49dd:	e9 1e db ff ff       	jmp    2500 <fflush@plt>
    49e2:	66 0f 1f 44 00 00    	nopw   0x0(%rax,%rax,1)
    49e8:	48 83 ec 08          	sub    $0x8,%rsp
    49ec:	ff 35 6e bb 00 00    	push   0xbb6e(%rip)        # 10560 <g_nr_guest_inst>
    49f2:	4c 89 ea             	mov    %r13,%rdx
    49f5:	4c 89 e1             	mov    %r12,%rcx
    49f8:	48 8b 3d 69 0b 01 00 	mov    0x10b69(%rip),%rdi        # 15568 <log_fp>
    49ff:	4c 8d 0d 92 4c 00 00 	lea    0x4c92(%rip),%r9        # 9698 <__func__.1>
    4a06:	41 b8 7b 00 00 00    	mov    $0x7b,%r8d
    4a0c:	31 c0                	xor    %eax,%eax
    4a0e:	be 01 00 00 00       	mov    $0x1,%esi
    4a13:	e8 e8 db ff ff       	call   2600 <__fprintf_chk@plt>
    4a18:	48 8b 3d 49 0b 01 00 	mov    0x10b49(%rip),%rdi        # 15568 <log_fp>
    4a1f:	e8 dc da ff ff       	call   2500 <fflush@plt>
    4a24:	58                   	pop    %rax
    4a25:	5a                   	pop    %rdx
    4a26:	e9 eb fe ff ff       	jmp    4916 <statistic+0x96>
    4a2b:	0f 1f 44 00 00       	nopl   0x0(%rax,%rax,1)
    4a30:	48 83 ec 08          	sub    $0x8,%rsp
    4a34:	ff 35 ce bb 00 00    	push   0xbbce(%rip)        # 10608 <g_timer>
    4a3a:	4c 89 e1             	mov    %r12,%rcx
    4a3d:	4c 89 ea             	mov    %r13,%rdx
    4a40:	48 8b 3d 21 0b 01 00 	mov    0x10b21(%rip),%rdi        # 15568 <log_fp>
    4a47:	be 01 00 00 00       	mov    $0x1,%esi
    4a4c:	41 b8 7a 00 00 00    	mov    $0x7a,%r8d
    4a52:	31 c0                	xor    %eax,%eax
    4a54:	4c 8d 0d 3d 4c 00 00 	lea    0x4c3d(%rip),%r9        # 9698 <__func__.1>
    4a5b:	e8 a0 db ff ff       	call   2600 <__fprintf_chk@plt>
    4a60:	48 8b 3d 01 0b 01 00 	mov    0x10b01(%rip),%rdi        # 15568 <log_fp>
    4a67:	e8 94 da ff ff       	call   2500 <fflush@plt>
    4a6c:	59                   	pop    %rcx
    4a6d:	5e                   	pop    %rsi
    4a6e:	e9 68 fe ff ff       	jmp    48db <statistic+0x5b>
    4a73:	0f 1f 44 00 00       	nopl   0x0(%rax,%rax,1)
    4a78:	31 d2                	xor    %edx,%edx
    4a7a:	48 83 ec 08          	sub    $0x8,%rsp
    4a7e:	48 8b 3d e3 0a 01 00 	mov    0x10ae3(%rip),%rdi        # 15568 <log_fp>
    4a85:	4c 89 e1             	mov    %r12,%rcx
    4a88:	48 69 05 cd ba 00 00 	imul   $0xf4240,0xbacd(%rip),%rax        # 10560 <g_nr_guest_inst>
    4a8f:	40 42 0f 00 
    4a93:	41 b8 7c 00 00 00    	mov    $0x7c,%r8d
    4a99:	be 01 00 00 00       	mov    $0x1,%esi
    4a9e:	4c 8d 0d f3 4b 00 00 	lea    0x4bf3(%rip),%r9        # 9698 <__func__.1>
    4aa5:	48 f7 35 5c bb 00 00 	divq   0xbb5c(%rip)        # 10608 <g_timer>
    4aac:	4c 89 ea             	mov    %r13,%rdx
    4aaf:	50                   	push   %rax
    4ab0:	31 c0                	xor    %eax,%eax
    4ab2:	e8 49 db ff ff       	call   2600 <__fprintf_chk@plt>
    4ab7:	48 8b 3d aa 0a 01 00 	mov    0x10aaa(%rip),%rdi        # 15568 <log_fp>
    4abe:	48 83 c4 18          	add    $0x18,%rsp
    4ac2:	41 5c                	pop    %r12
    4ac4:	41 5d                	pop    %r13
    4ac6:	e9 35 da ff ff       	jmp    2500 <fflush@plt>
    4acb:	0f 1f 44 00 00       	nopl   0x0(%rax,%rax,1)

0000000000004ad0 <assert_fail_msg>:
    4ad0:	f3 0f 1e fa          	endbr64 
    4ad4:	48 83 ec 08          	sub    $0x8,%rsp
    4ad8:	31 c0                	xor    %eax,%eax
    4ada:	e8 01 f7 ff ff       	call   41e0 <isa_reg_display>
    4adf:	31 c0                	xor    %eax,%eax
    4ae1:	48 83 c4 08          	add    $0x8,%rsp
    4ae5:	e9 96 fd ff ff       	jmp    4880 <statistic>
    4aea:	66 0f 1f 44 00 00    	nopw   0x0(%rax,%rax,1)

0000000000004af0 <cpu_exec>:
    4af0:	f3 0f 1e fa          	endbr64 
    4af4:	41 55                	push   %r13
    4af6:	41 54                	push   %r12
    4af8:	55                   	push   %rbp
    4af9:	53                   	push   %rbx
    4afa:	48 81 ec a8 00 00 00 	sub    $0xa8,%rsp
    4b01:	64 48 8b 04 25 28 00 	mov    %fs:0x28,%rax
    4b08:	00 00 
    4b0a:	48 89 84 24 98 00 00 	mov    %rax,0x98(%rsp)
    4b11:	00 
    4b12:	8b 05 20 96 00 00    	mov    0x9620(%rip),%eax        # e138 <nemu_state>
    4b18:	83 e8 02             	sub    $0x2,%eax
    4b1b:	83 f8 01             	cmp    $0x1,%eax
    4b1e:	0f 86 0c 01 00 00    	jbe    4c30 <cpu_exec+0x140>
    4b24:	c7 05 0a 96 00 00 00 	movl   $0x0,0x960a(%rip)        # e138 <nemu_state>
    4b2b:	00 00 00 
    4b2e:	31 c0                	xor    %eax,%eax
    4b30:	48 89 fb             	mov    %rdi,%rbx
    4b33:	e8 f8 2a 00 00       	call   7630 <get_time>
    4b38:	49 89 c5             	mov    %rax,%r13
    4b3b:	48 85 db             	test   %rbx,%rbx
    4b3e:	74 52                	je     4b92 <cpu_exec+0xa2>
    4b40:	49 89 e4             	mov    %rsp,%r12
    4b43:	48 8d 2d ee 95 00 00 	lea    0x95ee(%rip),%rbp        # e138 <nemu_state>
    4b4a:	eb 11                	jmp    4b5d <cpu_exec+0x6d>
    4b4c:	0f 1f 40 00          	nopl   0x0(%rax)
    4b50:	31 c0                	xor    %eax,%eax
    4b52:	e8 19 dc ff ff       	call   2770 <device_update>
    4b57:	48 83 eb 01          	sub    $0x1,%rbx
    4b5b:	74 35                	je     4b92 <cpu_exec+0xa2>
    4b5d:	66 0f 6e 0d 9b ba 00 	movd   0xba9b(%rip),%xmm1        # 10600 <cpu+0x80>
    4b64:	00 
    4b65:	4c 89 e7             	mov    %r12,%rdi
    4b68:	66 0f 70 c1 e0       	pshufd $0xe0,%xmm1,%xmm0
    4b6d:	66 0f d6 04 24       	movq   %xmm0,(%rsp)
    4b72:	e8 b9 f5 ff ff       	call   4130 <isa_exec_once>
    4b77:	8b 44 24 08          	mov    0x8(%rsp),%eax
    4b7b:	44 8b 4d 00          	mov    0x0(%rbp),%r9d
    4b7f:	48 83 05 d9 b9 00 00 	addq   $0x1,0xb9d9(%rip)        # 10560 <g_nr_guest_inst>
    4b86:	01 
    4b87:	89 05 73 ba 00 00    	mov    %eax,0xba73(%rip)        # 10600 <cpu+0x80>
    4b8d:	45 85 c9             	test   %r9d,%r9d
    4b90:	74 be                	je     4b50 <cpu_exec+0x60>
    4b92:	31 c0                	xor    %eax,%eax
    4b94:	e8 97 2a 00 00       	call   7630 <get_time>
    4b99:	49 89 c0             	mov    %rax,%r8
    4b9c:	48 8b 05 65 ba 00 00 	mov    0xba65(%rip),%rax        # 10608 <g_timer>
    4ba3:	4c 29 e8             	sub    %r13,%rax
    4ba6:	4c 01 c0             	add    %r8,%rax
    4ba9:	48 89 05 58 ba 00 00 	mov    %rax,0xba58(%rip)        # 10608 <g_timer>
    4bb0:	8b 05 82 95 00 00    	mov    0x9582(%rip),%eax        # e138 <nemu_state>
    4bb6:	83 f8 03             	cmp    $0x3,%eax
    4bb9:	7f 45                	jg     4c00 <cpu_exec+0x110>
    4bbb:	83 f8 01             	cmp    $0x1,%eax
    4bbe:	0f 8f 9c 00 00 00    	jg     4c60 <cpu_exec+0x170>
    4bc4:	85 c0                	test   %eax,%eax
    4bc6:	75 0a                	jne    4bd2 <cpu_exec+0xe2>
    4bc8:	c7 05 66 95 00 00 01 	movl   $0x1,0x9566(%rip)        # e138 <nemu_state>
    4bcf:	00 00 00 
    4bd2:	48 8b 84 24 98 00 00 	mov    0x98(%rsp),%rax
    4bd9:	00 
    4bda:	64 48 2b 04 25 28 00 	sub    %fs:0x28,%rax
    4be1:	00 00 
    4be3:	0f 85 52 01 00 00    	jne    4d3b <cpu_exec+0x24b>
    4be9:	48 81 c4 a8 00 00 00 	add    $0xa8,%rsp
    4bf0:	5b                   	pop    %rbx
    4bf1:	5d                   	pop    %rbp
    4bf2:	41 5c                	pop    %r12
    4bf4:	41 5d                	pop    %r13
    4bf6:	c3                   	ret    
    4bf7:	66 0f 1f 84 00 00 00 	nopw   0x0(%rax,%rax,1)
    4bfe:	00 00 
    4c00:	83 f8 04             	cmp    $0x4,%eax
    4c03:	75 cd                	jne    4bd2 <cpu_exec+0xe2>
    4c05:	48 8b 84 24 98 00 00 	mov    0x98(%rsp),%rax
    4c0c:	00 
    4c0d:	64 48 2b 04 25 28 00 	sub    %fs:0x28,%rax
    4c14:	00 00 
    4c16:	0f 85 1f 01 00 00    	jne    4d3b <cpu_exec+0x24b>
    4c1c:	48 81 c4 a8 00 00 00 	add    $0xa8,%rsp
    4c23:	31 c0                	xor    %eax,%eax
    4c25:	5b                   	pop    %rbx
    4c26:	5d                   	pop    %rbp
    4c27:	41 5c                	pop    %r12
    4c29:	41 5d                	pop    %r13
    4c2b:	e9 50 fc ff ff       	jmp    4880 <statistic>
    4c30:	48 8b 84 24 98 00 00 	mov    0x98(%rsp),%rax
    4c37:	00 
    4c38:	64 48 2b 04 25 28 00 	sub    %fs:0x28,%rax
    4c3f:	00 00 
    4c41:	0f 85 f4 00 00 00    	jne    4d3b <cpu_exec+0x24b>
    4c47:	48 81 c4 a8 00 00 00 	add    $0xa8,%rsp
    4c4e:	48 8d 3d b3 49 00 00 	lea    0x49b3(%rip),%rdi        # 9608 <__PRETTY_FUNCTION__.0+0x188>
    4c55:	5b                   	pop    %rbx
    4c56:	5d                   	pop    %rbp
    4c57:	41 5c                	pop    %r12
    4c59:	41 5d                	pop    %r13
    4c5b:	e9 70 d9 ff ff       	jmp    25d0 <puts@plt>
    4c60:	8b 15 d6 94 00 00    	mov    0x94d6(%rip),%edx        # e13c <nemu_state+0x4>
    4c66:	4c 8d 0d 52 48 00 00 	lea    0x4852(%rip),%r9        # 94bf <__PRETTY_FUNCTION__.0+0x3f>
    4c6d:	83 f8 03             	cmp    $0x3,%eax
    4c70:	74 1c                	je     4c8e <cpu_exec+0x19e>
    4c72:	44 8b 05 c7 94 00 00 	mov    0x94c7(%rip),%r8d        # e140 <nemu_state+0x8>
    4c79:	4c 8d 0d 50 48 00 00 	lea    0x4850(%rip),%r9        # 94d0 <__PRETTY_FUNCTION__.0+0x50>
    4c80:	48 8d 05 20 48 00 00 	lea    0x4820(%rip),%rax        # 94a7 <__PRETTY_FUNCTION__.0+0x27>
    4c87:	45 85 c0             	test   %r8d,%r8d
    4c8a:	4c 0f 45 c8          	cmovne %rax,%r9
    4c8e:	48 83 ec 08          	sub    $0x8,%rsp
    4c92:	4c 8d 2d fb 47 00 00 	lea    0x47fb(%rip),%r13        # 9494 <__PRETTY_FUNCTION__.0+0x14>
    4c99:	31 c0                	xor    %eax,%eax
    4c9b:	52                   	push   %rdx
    4c9c:	bf 01 00 00 00       	mov    $0x1,%edi
    4ca1:	4c 89 ea             	mov    %r13,%rdx
    4ca4:	4c 8d 25 ad 49 00 00 	lea    0x49ad(%rip),%r12        # 9658 <__PRETTY_FUNCTION__.0+0x1d8>
    4cab:	4c 89 e6             	mov    %r12,%rsi
    4cae:	4c 8d 05 d3 49 00 00 	lea    0x49d3(%rip),%r8        # 9688 <__func__.0>
    4cb5:	b9 9a 00 00 00       	mov    $0x9a,%ecx
    4cba:	e8 91 d6 ff ff       	call   2350 <__printf_chk@plt>
    4cbf:	31 c0                	xor    %eax,%eax
    4cc1:	e8 4a 2b 00 00       	call   7810 <log_enable>
    4cc6:	5e                   	pop    %rsi
    4cc7:	5f                   	pop    %rdi
    4cc8:	84 c0                	test   %al,%al
    4cca:	0f 84 35 ff ff ff    	je     4c05 <cpu_exec+0x115>
    4cd0:	83 3d 61 94 00 00 03 	cmpl   $0x3,0x9461(%rip)        # e138 <nemu_state>
    4cd7:	8b 15 5f 94 00 00    	mov    0x945f(%rip),%edx        # e13c <nemu_state+0x4>
    4cdd:	48 8d 05 db 47 00 00 	lea    0x47db(%rip),%rax        # 94bf <__PRETTY_FUNCTION__.0+0x3f>
    4ce4:	74 1a                	je     4d00 <cpu_exec+0x210>
    4ce6:	8b 0d 54 94 00 00    	mov    0x9454(%rip),%ecx        # e140 <nemu_state+0x8>
    4cec:	48 8d 05 dd 47 00 00 	lea    0x47dd(%rip),%rax        # 94d0 <__PRETTY_FUNCTION__.0+0x50>
    4cf3:	85 c9                	test   %ecx,%ecx
    4cf5:	48 8d 0d ab 47 00 00 	lea    0x47ab(%rip),%rcx        # 94a7 <__PRETTY_FUNCTION__.0+0x27>
    4cfc:	48 0f 45 c1          	cmovne %rcx,%rax
    4d00:	52                   	push   %rdx
    4d01:	48 8b 3d 60 08 01 00 	mov    0x10860(%rip),%rdi        # 15568 <log_fp>
    4d08:	4c 89 e2             	mov    %r12,%rdx
    4d0b:	4c 89 e9             	mov    %r13,%rcx
    4d0e:	50                   	push   %rax
    4d0f:	4c 8d 0d 72 49 00 00 	lea    0x4972(%rip),%r9        # 9688 <__func__.0>
    4d16:	41 b8 9a 00 00 00    	mov    $0x9a,%r8d
    4d1c:	31 c0                	xor    %eax,%eax
    4d1e:	be 01 00 00 00       	mov    $0x1,%esi
    4d23:	e8 d8 d8 ff ff       	call   2600 <__fprintf_chk@plt>
    4d28:	48 8b 3d 39 08 01 00 	mov    0x10839(%rip),%rdi        # 15568 <log_fp>
    4d2f:	e8 cc d7 ff ff       	call   2500 <fflush@plt>
    4d34:	58                   	pop    %rax
    4d35:	5a                   	pop    %rdx
    4d36:	e9 ca fe ff ff       	jmp    4c05 <cpu_exec+0x115>
    4d3b:	e8 80 d7 ff ff       	call   24c0 <__stack_chk_fail@plt>

0000000000004d40 <cmd_q>:
    4d40:	f3 0f 1e fa          	endbr64 
    4d44:	c7 05 ea 93 00 00 04 	movl   $0x4,0x93ea(%rip)        # e138 <nemu_state>
    4d4b:	00 00 00 
    4d4e:	b8 ff ff ff ff       	mov    $0xffffffff,%eax
    4d53:	c3                   	ret    
    4d54:	66 66 2e 0f 1f 84 00 	data16 cs nopw 0x0(%rax,%rax,1)
    4d5b:	00 00 00 00 
    4d5f:	90                   	nop

0000000000004d60 <cmd_xd>:
    4d60:	f3 0f 1e fa          	endbr64 
    4d64:	48 83 ec 08          	sub    $0x8,%rsp
    4d68:	31 c0                	xor    %eax,%eax
    4d6a:	e8 51 34 00 00       	call   81c0 <display_mmio_map>
    4d6f:	31 c0                	xor    %eax,%eax
    4d71:	48 83 c4 08          	add    $0x8,%rsp
    4d75:	c3                   	ret    
    4d76:	66 2e 0f 1f 84 00 00 	cs nopw 0x0(%rax,%rax,1)
    4d7d:	00 00 00 

0000000000004d80 <cmd_rst>:
    4d80:	f3 0f 1e fa          	endbr64 
    4d84:	48 83 ec 08          	sub    $0x8,%rsp
    4d88:	31 c0                	xor    %eax,%eax
    4d8a:	e8 51 28 00 00       	call   75e0 <reset_monitor>
    4d8f:	31 c0                	xor    %eax,%eax
    4d91:	48 83 c4 08          	add    $0x8,%rsp
    4d95:	c3                   	ret    
    4d96:	66 2e 0f 1f 84 00 00 	cs nopw 0x0(%rax,%rax,1)
    4d9d:	00 00 00 

0000000000004da0 <cmd_c>:
    4da0:	f3 0f 1e fa          	endbr64 
    4da4:	48 83 ec 08          	sub    $0x8,%rsp
    4da8:	48 c7 c7 ff ff ff ff 	mov    $0xffffffffffffffff,%rdi
    4daf:	e8 3c fd ff ff       	call   4af0 <cpu_exec>
    4db4:	31 c0                	xor    %eax,%eax
    4db6:	48 83 c4 08          	add    $0x8,%rsp
    4dba:	c3                   	ret    
    4dbb:	0f 1f 44 00 00       	nopl   0x0(%rax,%rax,1)

0000000000004dc0 <cmd_d>:
    4dc0:	f3 0f 1e fa          	endbr64 
    4dc4:	55                   	push   %rbp
    4dc5:	48 8d 35 d6 48 00 00 	lea    0x48d6(%rip),%rsi        # 96a2 <__func__.1+0xa>
    4dcc:	53                   	push   %rbx
    4dcd:	48 83 ec 28          	sub    $0x28,%rsp
    4dd1:	64 48 8b 04 25 28 00 	mov    %fs:0x28,%rax
    4dd8:	00 00 
    4dda:	48 89 44 24 18       	mov    %rax,0x18(%rsp)
    4ddf:	31 c0                	xor    %eax,%eax
    4de1:	48 8d 6c 24 10       	lea    0x10(%rsp),%rbp
    4de6:	48 8d 4c 24 0c       	lea    0xc(%rsp),%rcx
    4deb:	48 89 ea             	mov    %rbp,%rdx
    4dee:	e8 9d d6 ff ff       	call   2490 <__isoc99_sscanf@plt>
    4df3:	85 c0                	test   %eax,%eax
    4df5:	0f 84 8d 00 00 00    	je     4e88 <cmd_d+0xc8>
    4dfb:	83 f8 01             	cmp    $0x1,%eax
    4dfe:	74 30                	je     4e30 <cmd_d+0x70>
    4e00:	83 f8 02             	cmp    $0x2,%eax
    4e03:	0f 84 97 00 00 00    	je     4ea0 <cmd_d+0xe0>
    4e09:	48 8b 44 24 18       	mov    0x18(%rsp),%rax
    4e0e:	64 48 2b 04 25 28 00 	sub    %fs:0x28,%rax
    4e15:	00 00 
    4e17:	0f 85 34 01 00 00    	jne    4f51 <cmd_d+0x191>
    4e1d:	48 83 c4 28          	add    $0x28,%rsp
    4e21:	31 c0                	xor    %eax,%eax
    4e23:	5b                   	pop    %rbx
    4e24:	5d                   	pop    %rbp
    4e25:	c3                   	ret    
    4e26:	66 2e 0f 1f 84 00 00 	cs nopw 0x0(%rax,%rax,1)
    4e2d:	00 00 00 
    4e30:	66 83 7c 24 10 77    	cmpw   $0x77,0x10(%rsp)
    4e36:	0f 84 a4 00 00 00    	je     4ee0 <cmd_d+0x120>
    4e3c:	66 83 7c 24 10 62    	cmpw   $0x62,0x10(%rsp)
    4e42:	75 c5                	jne    4e09 <cmd_d+0x49>
    4e44:	48 8d 3d 8a 48 00 00 	lea    0x488a(%rip),%rdi        # 96d5 <__func__.1+0x3d>
    4e4b:	e8 80 d7 ff ff       	call   25d0 <puts@plt>
    4e50:	31 c0                	xor    %eax,%eax
    4e52:	48 89 ee             	mov    %rbp,%rsi
    4e55:	48 8d 3d 3a 45 00 00 	lea    0x453a(%rip),%rdi        # 9396 <__PRETTY_FUNCTION__.1+0x1ae>
    4e5c:	e8 7f d6 ff ff       	call   24e0 <__isoc99_scanf@plt>
    4e61:	66 83 7c 24 10 79    	cmpw   $0x79,0x10(%rsp)
    4e67:	75 a0                	jne    4e09 <cmd_d+0x49>
    4e69:	31 db                	xor    %ebx,%ebx
    4e6b:	0f 1f 44 00 00       	nopl   0x0(%rax,%rax,1)
    4e70:	89 df                	mov    %ebx,%edi
    4e72:	83 c3 01             	add    $0x1,%ebx
    4e75:	e8 e6 0d 00 00       	call   5c60 <free_bp>
    4e7a:	83 fb 10             	cmp    $0x10,%ebx
    4e7d:	75 f1                	jne    4e70 <cmd_d+0xb0>
    4e7f:	eb 88                	jmp    4e09 <cmd_d+0x49>
    4e81:	0f 1f 80 00 00 00 00 	nopl   0x0(%rax)
    4e88:	48 8d 3d 19 48 00 00 	lea    0x4819(%rip),%rdi        # 96a8 <__func__.1+0x10>
    4e8f:	e8 3c d7 ff ff       	call   25d0 <puts@plt>
    4e94:	e9 70 ff ff ff       	jmp    4e09 <cmd_d+0x49>
    4e99:	0f 1f 80 00 00 00 00 	nopl   0x0(%rax)
    4ea0:	66 83 7c 24 10 77    	cmpw   $0x77,0x10(%rsp)
    4ea6:	0f 84 7c 00 00 00    	je     4f28 <cmd_d+0x168>
    4eac:	66 83 7c 24 10 62    	cmpw   $0x62,0x10(%rsp)
    4eb2:	0f 85 51 ff ff ff    	jne    4e09 <cmd_d+0x49>
    4eb8:	8b 7c 24 0c          	mov    0xc(%rsp),%edi
    4ebc:	e8 9f 0d 00 00       	call   5c60 <free_bp>
    4ec1:	84 c0                	test   %al,%al
    4ec3:	0f 85 40 ff ff ff    	jne    4e09 <cmd_d+0x49>
    4ec9:	48 8d 35 3b 48 00 00 	lea    0x483b(%rip),%rsi        # 970b <__func__.1+0x73>
    4ed0:	bf 01 00 00 00       	mov    $0x1,%edi
    4ed5:	e8 76 d4 ff ff       	call   2350 <__printf_chk@plt>
    4eda:	e9 2a ff ff ff       	jmp    4e09 <cmd_d+0x49>
    4edf:	90                   	nop
    4ee0:	48 8d 3d d1 47 00 00 	lea    0x47d1(%rip),%rdi        # 96b8 <__func__.1+0x20>
    4ee7:	e8 e4 d6 ff ff       	call   25d0 <puts@plt>
    4eec:	31 c0                	xor    %eax,%eax
    4eee:	48 89 ee             	mov    %rbp,%rsi
    4ef1:	48 8d 3d 9e 44 00 00 	lea    0x449e(%rip),%rdi        # 9396 <__PRETTY_FUNCTION__.1+0x1ae>
    4ef8:	e8 e3 d5 ff ff       	call   24e0 <__isoc99_scanf@plt>
    4efd:	66 83 7c 24 10 79    	cmpw   $0x79,0x10(%rsp)
    4f03:	0f 85 00 ff ff ff    	jne    4e09 <cmd_d+0x49>
    4f09:	31 db                	xor    %ebx,%ebx
    4f0b:	0f 1f 44 00 00       	nopl   0x0(%rax,%rax,1)
    4f10:	89 df                	mov    %ebx,%edi
    4f12:	83 c3 01             	add    $0x1,%ebx
    4f15:	e8 36 1c 00 00       	call   6b50 <free_wp>
    4f1a:	83 fb 10             	cmp    $0x10,%ebx
    4f1d:	75 f1                	jne    4f10 <cmd_d+0x150>
    4f1f:	e9 e5 fe ff ff       	jmp    4e09 <cmd_d+0x49>
    4f24:	0f 1f 40 00          	nopl   0x0(%rax)
    4f28:	8b 7c 24 0c          	mov    0xc(%rsp),%edi
    4f2c:	e8 1f 1c 00 00       	call   6b50 <free_wp>
    4f31:	84 c0                	test   %al,%al
    4f33:	0f 85 d0 fe ff ff    	jne    4e09 <cmd_d+0x49>
    4f39:	48 8d 35 b2 47 00 00 	lea    0x47b2(%rip),%rsi        # 96f2 <__func__.1+0x5a>
    4f40:	bf 01 00 00 00       	mov    $0x1,%edi
    4f45:	31 c0                	xor    %eax,%eax
    4f47:	e8 04 d4 ff ff       	call   2350 <__printf_chk@plt>
    4f4c:	e9 b8 fe ff ff       	jmp    4e09 <cmd_d+0x49>
    4f51:	e8 6a d5 ff ff       	call   24c0 <__stack_chk_fail@plt>
    4f56:	66 2e 0f 1f 84 00 00 	cs nopw 0x0(%rax,%rax,1)
    4f5d:	00 00 00 

0000000000004f60 <cmd_p>:
    4f60:	f3 0f 1e fa          	endbr64 
    4f64:	41 54                	push   %r12
    4f66:	49 89 fc             	mov    %rdi,%r12
    4f69:	bf 80 00 00 00       	mov    $0x80,%edi
    4f6e:	55                   	push   %rbp
    4f6f:	48 83 ec 18          	sub    $0x18,%rsp
    4f73:	64 48 8b 04 25 28 00 	mov    %fs:0x28,%rax
    4f7a:	00 00 
    4f7c:	48 89 44 24 08       	mov    %rax,0x8(%rsp)
    4f81:	31 c0                	xor    %eax,%eax
    4f83:	e8 e8 d5 ff ff       	call   2570 <malloc@plt>
    4f88:	48 89 c5             	mov    %rax,%rbp
    4f8b:	4d 85 e4             	test   %r12,%r12
    4f8e:	74 70                	je     5000 <cmd_p+0xa0>
    4f90:	48 89 c2             	mov    %rax,%rdx
    4f93:	48 8d 35 9a 47 00 00 	lea    0x479a(%rip),%rsi        # 9734 <__func__.1+0x9c>
    4f9a:	4c 89 e7             	mov    %r12,%rdi
    4f9d:	31 c0                	xor    %eax,%eax
    4f9f:	e8 ec d4 ff ff       	call   2490 <__isoc99_sscanf@plt>
    4fa4:	48 8d 74 24 07       	lea    0x7(%rsp),%rsi
    4fa9:	48 89 ef             	mov    %rbp,%rdi
    4fac:	c6 44 24 07 01       	movb   $0x1,0x7(%rsp)
    4fb1:	e8 2a 16 00 00       	call   65e0 <expr>
    4fb6:	80 7c 24 07 00       	cmpb   $0x0,0x7(%rsp)
    4fbb:	89 c1                	mov    %eax,%ecx
    4fbd:	74 16                	je     4fd5 <cmd_p+0x75>
    4fbf:	48 89 ea             	mov    %rbp,%rdx
    4fc2:	48 8d 35 5b 47 00 00 	lea    0x475b(%rip),%rsi        # 9724 <__func__.1+0x8c>
    4fc9:	bf 01 00 00 00       	mov    $0x1,%edi
    4fce:	31 c0                	xor    %eax,%eax
    4fd0:	e8 7b d3 ff ff       	call   2350 <__printf_chk@plt>
    4fd5:	48 89 ef             	mov    %rbp,%rdi
    4fd8:	e8 43 d5 ff ff       	call   2520 <free@plt>
    4fdd:	48 8b 44 24 08       	mov    0x8(%rsp),%rax
    4fe2:	64 48 2b 04 25 28 00 	sub    %fs:0x28,%rax
    4fe9:	00 00 
    4feb:	75 29                	jne    5016 <cmd_p+0xb6>
    4fed:	48 83 c4 18          	add    $0x18,%rsp
    4ff1:	31 c0                	xor    %eax,%eax
    4ff3:	5d                   	pop    %rbp
    4ff4:	41 5c                	pop    %r12
    4ff6:	c3                   	ret    
    4ff7:	66 0f 1f 84 00 00 00 	nopw   0x0(%rax,%rax,1)
    4ffe:	00 00 
    5000:	48 8d 3d a1 46 00 00 	lea    0x46a1(%rip),%rdi        # 96a8 <__func__.1+0x10>
    5007:	e8 c4 d5 ff ff       	call   25d0 <puts@plt>
    500c:	48 89 ef             	mov    %rbp,%rdi
    500f:	e8 0c d5 ff ff       	call   2520 <free@plt>
    5014:	eb c7                	jmp    4fdd <cmd_p+0x7d>
    5016:	e8 a5 d4 ff ff       	call   24c0 <__stack_chk_fail@plt>
    501b:	0f 1f 44 00 00       	nopl   0x0(%rax,%rax,1)

0000000000005020 <cmd_x>:
    5020:	f3 0f 1e fa          	endbr64 
    5024:	41 56                	push   %r14
    5026:	41 55                	push   %r13
    5028:	41 54                	push   %r12
    502a:	49 89 fc             	mov    %rdi,%r12
    502d:	bf 80 00 00 00       	mov    $0x80,%edi
    5032:	55                   	push   %rbp
    5033:	53                   	push   %rbx
    5034:	48 83 ec 10          	sub    $0x10,%rsp
    5038:	64 48 8b 04 25 28 00 	mov    %fs:0x28,%rax
    503f:	00 00 
    5041:	48 89 44 24 08       	mov    %rax,0x8(%rsp)
    5046:	31 c0                	xor    %eax,%eax
    5048:	e8 23 d5 ff ff       	call   2570 <malloc@plt>
    504d:	48 8d 54 24 04       	lea    0x4(%rsp),%rdx
    5052:	4c 89 e7             	mov    %r12,%rdi
    5055:	48 8d 35 d5 46 00 00 	lea    0x46d5(%rip),%rsi        # 9731 <__func__.1+0x99>
    505c:	48 89 c5             	mov    %rax,%rbp
    505f:	48 89 c1             	mov    %rax,%rcx
    5062:	31 c0                	xor    %eax,%eax
    5064:	c6 44 24 03 01       	movb   $0x1,0x3(%rsp)
    5069:	e8 22 d4 ff ff       	call   2490 <__isoc99_sscanf@plt>
    506e:	83 f8 02             	cmp    $0x2,%eax
    5071:	74 35                	je     50a8 <cmd_x+0x88>
    5073:	48 8d 3d 2e 46 00 00 	lea    0x462e(%rip),%rdi        # 96a8 <__func__.1+0x10>
    507a:	e8 51 d5 ff ff       	call   25d0 <puts@plt>
    507f:	48 8b 44 24 08       	mov    0x8(%rsp),%rax
    5084:	64 48 2b 04 25 28 00 	sub    %fs:0x28,%rax
    508b:	00 00 
    508d:	0f 85 a0 00 00 00    	jne    5133 <cmd_x+0x113>
    5093:	48 83 c4 10          	add    $0x10,%rsp
    5097:	31 c0                	xor    %eax,%eax
    5099:	5b                   	pop    %rbx
    509a:	5d                   	pop    %rbp
    509b:	41 5c                	pop    %r12
    509d:	41 5d                	pop    %r13
    509f:	41 5e                	pop    %r14
    50a1:	c3                   	ret    
    50a2:	66 0f 1f 44 00 00    	nopw   0x0(%rax,%rax,1)
    50a8:	4c 8d 64 24 03       	lea    0x3(%rsp),%r12
    50ad:	48 89 ef             	mov    %rbp,%rdi
    50b0:	4c 89 e6             	mov    %r12,%rsi
    50b3:	e8 28 15 00 00       	call   65e0 <expr>
    50b8:	80 7c 24 03 00       	cmpb   $0x0,0x3(%rsp)
    50bd:	89 c3                	mov    %eax,%ebx
    50bf:	74 be                	je     507f <cmd_x+0x5f>
    50c1:	8b 44 24 04          	mov    0x4(%rsp),%eax
    50c5:	85 c0                	test   %eax,%eax
    50c7:	7e 33                	jle    50fc <cmd_x+0xdc>
    50c9:	45 31 f6             	xor    %r14d,%r14d
    50cc:	4c 8d 2d 67 46 00 00 	lea    0x4667(%rip),%r13        # 973a <__func__.1+0xa2>
    50d3:	0f 1f 44 00 00       	nopl   0x0(%rax,%rax,1)
    50d8:	4c 89 e2             	mov    %r12,%rdx
    50db:	be 04 00 00 00       	mov    $0x4,%esi
    50e0:	89 df                	mov    %ebx,%edi
    50e2:	e8 89 27 00 00       	call   7870 <sdb_vaddr_read>
    50e7:	80 7c 24 03 00       	cmpb   $0x0,0x3(%rsp)
    50ec:	75 22                	jne    5110 <cmd_x+0xf0>
    50ee:	41 83 c6 01          	add    $0x1,%r14d
    50f2:	83 c3 04             	add    $0x4,%ebx
    50f5:	44 39 74 24 04       	cmp    %r14d,0x4(%rsp)
    50fa:	7f dc                	jg     50d8 <cmd_x+0xb8>
    50fc:	48 89 ef             	mov    %rbp,%rdi
    50ff:	e8 1c d4 ff ff       	call   2520 <free@plt>
    5104:	e9 76 ff ff ff       	jmp    507f <cmd_x+0x5f>
    5109:	0f 1f 80 00 00 00 00 	nopl   0x0(%rax)
    5110:	89 c1                	mov    %eax,%ecx
    5112:	89 da                	mov    %ebx,%edx
    5114:	4c 89 ee             	mov    %r13,%rsi
    5117:	bf 01 00 00 00       	mov    $0x1,%edi
    511c:	31 c0                	xor    %eax,%eax
    511e:	41 83 c6 01          	add    $0x1,%r14d
    5122:	83 c3 04             	add    $0x4,%ebx
    5125:	e8 26 d2 ff ff       	call   2350 <__printf_chk@plt>
    512a:	44 3b 74 24 04       	cmp    0x4(%rsp),%r14d
    512f:	7c a7                	jl     50d8 <cmd_x+0xb8>
    5131:	eb c9                	jmp    50fc <cmd_x+0xdc>
    5133:	e8 88 d3 ff ff       	call   24c0 <__stack_chk_fail@plt>
    5138:	0f 1f 84 00 00 00 00 	nopl   0x0(%rax,%rax,1)
    513f:	00 

0000000000005140 <cmd_info>:
    5140:	f3 0f 1e fa          	endbr64 
    5144:	48 83 ec 18          	sub    $0x18,%rsp
    5148:	64 48 8b 04 25 28 00 	mov    %fs:0x28,%rax
    514f:	00 00 
    5151:	48 89 44 24 08       	mov    %rax,0x8(%rsp)
    5156:	31 c0                	xor    %eax,%eax
    5158:	48 85 ff             	test   %rdi,%rdi
    515b:	0f 84 1f 01 00 00    	je     5280 <cmd_info+0x140>
    5161:	48 8d 54 24 05       	lea    0x5(%rsp),%rdx
    5166:	48 8d 35 29 42 00 00 	lea    0x4229(%rip),%rsi        # 9396 <__PRETTY_FUNCTION__.1+0x1ae>
    516d:	31 c0                	xor    %eax,%eax
    516f:	e8 1c d3 ff ff       	call   2490 <__isoc99_sscanf@plt>
    5174:	0f b6 44 24 05       	movzbl 0x5(%rsp),%eax
    5179:	3c 72                	cmp    $0x72,%al
    517b:	0f 84 9f 00 00 00    	je     5220 <cmd_info+0xe0>
    5181:	3c 77                	cmp    $0x77,%al
    5183:	74 33                	je     51b8 <cmd_info+0x78>
    5185:	66 83 7c 24 05 62    	cmpw   $0x62,0x5(%rsp)
    518b:	74 43                	je     51d0 <cmd_info+0x90>
    518d:	0f b6 44 24 05       	movzbl 0x5(%rsp),%eax
    5192:	83 f8 77             	cmp    $0x77,%eax
    5195:	75 61                	jne    51f8 <cmd_info+0xb8>
    5197:	80 7c 24 06 72       	cmpb   $0x72,0x6(%rsp)
    519c:	75 5a                	jne    51f8 <cmd_info+0xb8>
    519e:	80 7c 24 07 00       	cmpb   $0x0,0x7(%rsp)
    51a3:	75 53                	jne    51f8 <cmd_info+0xb8>
    51a5:	48 8d 3d 9d 45 00 00 	lea    0x459d(%rip),%rdi        # 9749 <__func__.1+0xb1>
    51ac:	e8 1f d4 ff ff       	call   25d0 <puts@plt>
    51b1:	eb 24                	jmp    51d7 <cmd_info+0x97>
    51b3:	0f 1f 44 00 00       	nopl   0x0(%rax,%rax,1)
    51b8:	80 7c 24 06 00       	cmpb   $0x0,0x6(%rsp)
    51bd:	75 c6                	jne    5185 <cmd_info+0x45>
    51bf:	31 c0                	xor    %eax,%eax
    51c1:	e8 8a 1a 00 00       	call   6c50 <print_watchpoint>
    51c6:	eb 0f                	jmp    51d7 <cmd_info+0x97>
    51c8:	0f 1f 84 00 00 00 00 	nopl   0x0(%rax,%rax,1)
    51cf:	00 
    51d0:	31 c0                	xor    %eax,%eax
    51d2:	e8 99 0b 00 00       	call   5d70 <display_breakpoint>
    51d7:	48 8b 44 24 08       	mov    0x8(%rsp),%rax
    51dc:	64 48 2b 04 25 28 00 	sub    %fs:0x28,%rax
    51e3:	00 00 
    51e5:	0f 85 a6 00 00 00    	jne    5291 <cmd_info+0x151>
    51eb:	31 c0                	xor    %eax,%eax
    51ed:	48 83 c4 18          	add    $0x18,%rsp
    51f1:	c3                   	ret    
    51f2:	66 0f 1f 44 00 00    	nopw   0x0(%rax,%rax,1)
    51f8:	83 f8 69             	cmp    $0x69,%eax
    51fb:	75 43                	jne    5240 <cmd_info+0x100>
    51fd:	80 7c 24 06 72       	cmpb   $0x72,0x6(%rsp)
    5202:	75 3c                	jne    5240 <cmd_info+0x100>
    5204:	80 7c 24 07 00       	cmpb   $0x0,0x7(%rsp)
    5209:	75 35                	jne    5240 <cmd_info+0x100>
    520b:	48 8d 3d 47 45 00 00 	lea    0x4547(%rip),%rdi        # 9759 <__func__.1+0xc1>
    5212:	e8 b9 d3 ff ff       	call   25d0 <puts@plt>
    5217:	eb be                	jmp    51d7 <cmd_info+0x97>
    5219:	0f 1f 80 00 00 00 00 	nopl   0x0(%rax)
    5220:	80 7c 24 06 00       	cmpb   $0x0,0x6(%rsp)
    5225:	0f 85 5a ff ff ff    	jne    5185 <cmd_info+0x45>
    522b:	31 ff                	xor    %edi,%edi
    522d:	31 c0                	xor    %eax,%eax
    522f:	e8 ac ef ff ff       	call   41e0 <isa_reg_display>
    5234:	eb a1                	jmp    51d7 <cmd_info+0x97>
    5236:	66 2e 0f 1f 84 00 00 	cs nopw 0x0(%rax,%rax,1)
    523d:	00 00 00 
    5240:	83 f8 66             	cmp    $0x66,%eax
    5243:	75 23                	jne    5268 <cmd_info+0x128>
    5245:	80 7c 24 06 72       	cmpb   $0x72,0x6(%rsp)
    524a:	75 1c                	jne    5268 <cmd_info+0x128>
    524c:	80 7c 24 07 00       	cmpb   $0x0,0x7(%rsp)
    5251:	75 15                	jne    5268 <cmd_info+0x128>
    5253:	48 8d 3d 0e 45 00 00 	lea    0x450e(%rip),%rdi        # 9768 <__func__.1+0xd0>
    525a:	e8 71 d3 ff ff       	call   25d0 <puts@plt>
    525f:	e9 73 ff ff ff       	jmp    51d7 <cmd_info+0x97>
    5264:	0f 1f 40 00          	nopl   0x0(%rax)
    5268:	48 8d 3d 08 45 00 00 	lea    0x4508(%rip),%rdi        # 9777 <__func__.1+0xdf>
    526f:	e8 5c d3 ff ff       	call   25d0 <puts@plt>
    5274:	e9 5e ff ff ff       	jmp    51d7 <cmd_info+0x97>
    5279:	0f 1f 80 00 00 00 00 	nopl   0x0(%rax)
    5280:	48 8d 3d e9 45 00 00 	lea    0x45e9(%rip),%rdi        # 9870 <__func__.1+0x1d8>
    5287:	e8 44 d3 ff ff       	call   25d0 <puts@plt>
    528c:	e9 46 ff ff ff       	jmp    51d7 <cmd_info+0x97>
    5291:	e8 2a d2 ff ff       	call   24c0 <__stack_chk_fail@plt>
    5296:	66 2e 0f 1f 84 00 00 	cs nopw 0x0(%rax,%rax,1)
    529d:	00 00 00 

00000000000052a0 <cmd_help>:
    52a0:	f3 0f 1e fa          	endbr64 
    52a4:	41 55                	push   %r13
    52a6:	31 ff                	xor    %edi,%edi
    52a8:	48 8d 35 30 45 00 00 	lea    0x4530(%rip),%rsi        # 97df <__func__.1+0x147>
    52af:	41 54                	push   %r12
    52b1:	55                   	push   %rbp
    52b2:	53                   	push   %rbx
    52b3:	48 83 ec 08          	sub    $0x8,%rsp
    52b7:	e8 24 d3 ff ff       	call   25e0 <strtok@plt>
    52bc:	48 85 c0             	test   %rax,%rax
    52bf:	0f 84 d3 01 00 00    	je     5498 <cmd_help+0x1f8>
    52c5:	48 8d 1d b9 44 00 00 	lea    0x44b9(%rip),%rbx        # 9785 <__func__.1+0xed>
    52cc:	48 89 c7             	mov    %rax,%rdi
    52cf:	49 89 c4             	mov    %rax,%r12
    52d2:	48 89 de             	mov    %rbx,%rsi
    52d5:	e8 b6 d2 ff ff       	call   2590 <strcmp@plt>
    52da:	85 c0                	test   %eax,%eax
    52dc:	0f 84 4c 02 00 00    	je     552e <cmd_help+0x28e>
    52e2:	41 0f b6 1c 24       	movzbl (%r12),%ebx
    52e7:	83 fb 63             	cmp    $0x63,%ebx
    52ea:	0f 84 e0 00 00 00    	je     53d0 <cmd_help+0x130>
    52f0:	83 fb 71             	cmp    $0x71,%ebx
    52f3:	0f 84 f7 00 00 00    	je     53f0 <cmd_help+0x150>
    52f9:	45 0f b6 2c 24       	movzbl (%r12),%r13d
    52fe:	41 83 fd 73          	cmp    $0x73,%r13d
    5302:	0f 84 08 01 00 00    	je     5410 <cmd_help+0x170>
    5308:	48 8d 2d 80 44 00 00 	lea    0x4480(%rip),%rbp        # 978f <__func__.1+0xf7>
    530f:	4c 89 e7             	mov    %r12,%rdi
    5312:	48 89 ee             	mov    %rbp,%rsi
    5315:	e8 76 d2 ff ff       	call   2590 <strcmp@plt>
    531a:	85 c0                	test   %eax,%eax
    531c:	0f 84 14 02 00 00    	je     5536 <cmd_help+0x296>
    5322:	83 fb 78             	cmp    $0x78,%ebx
    5325:	0f 84 15 01 00 00    	je     5440 <cmd_help+0x1a0>
    532b:	83 fb 70             	cmp    $0x70,%ebx
    532e:	75 0c                	jne    533c <cmd_help+0x9c>
    5330:	41 80 7c 24 01 00    	cmpb   $0x0,0x1(%r12)
    5336:	0f 84 07 02 00 00    	je     5543 <cmd_help+0x2a3>
    533c:	83 fb 64             	cmp    $0x64,%ebx
    533f:	75 0c                	jne    534d <cmd_help+0xad>
    5341:	41 80 7c 24 01 00    	cmpb   $0x0,0x1(%r12)
    5347:	0f 84 d0 01 00 00    	je     551d <cmd_help+0x27d>
    534d:	48 8d 2d 40 44 00 00 	lea    0x4440(%rip),%rbp        # 9794 <__func__.1+0xfc>
    5354:	4c 89 e7             	mov    %r12,%rdi
    5357:	48 89 ee             	mov    %rbp,%rsi
    535a:	e8 31 d2 ff ff       	call   2590 <strcmp@plt>
    535f:	85 c0                	test   %eax,%eax
    5361:	0f 84 ed 01 00 00    	je     5554 <cmd_help+0x2b4>
    5367:	41 83 fd 78          	cmp    $0x78,%r13d
    536b:	0f 85 ef 00 00 00    	jne    5460 <cmd_help+0x1c0>
    5371:	41 80 7c 24 01 64    	cmpb   $0x64,0x1(%r12)
    5377:	0f 85 e3 00 00 00    	jne    5460 <cmd_help+0x1c0>
    537d:	41 80 7c 24 02 00    	cmpb   $0x0,0x2(%r12)
    5383:	0f 85 d7 00 00 00    	jne    5460 <cmd_help+0x1c0>
    5389:	b8 09 00 00 00       	mov    $0x9,%eax
    538e:	48 8d 15 03 44 00 00 	lea    0x4403(%rip),%rdx        # 9798 <__func__.1+0x100>
    5395:	48 98                	cltq   
    5397:	48 8d 35 fd 43 00 00 	lea    0x43fd(%rip),%rsi        # 979b <__func__.1+0x103>
    539e:	bf 01 00 00 00       	mov    $0x1,%edi
    53a3:	48 8d 0c 40          	lea    (%rax,%rax,2),%rcx
    53a7:	48 8d 05 72 86 00 00 	lea    0x8672(%rip),%rax        # da20 <cmd_table>
    53ae:	48 8b 4c c8 08       	mov    0x8(%rax,%rcx,8),%rcx
    53b3:	31 c0                	xor    %eax,%eax
    53b5:	e8 96 cf ff ff       	call   2350 <__printf_chk@plt>
    53ba:	48 83 c4 08          	add    $0x8,%rsp
    53be:	31 c0                	xor    %eax,%eax
    53c0:	5b                   	pop    %rbx
    53c1:	5d                   	pop    %rbp
    53c2:	41 5c                	pop    %r12
    53c4:	41 5d                	pop    %r13
    53c6:	c3                   	ret    
    53c7:	66 0f 1f 84 00 00 00 	nopw   0x0(%rax,%rax,1)
    53ce:	00 00 
    53d0:	41 80 7c 24 01 00    	cmpb   $0x0,0x1(%r12)
    53d6:	0f 85 14 ff ff ff    	jne    52f0 <cmd_help+0x50>
    53dc:	b8 01 00 00 00       	mov    $0x1,%eax
    53e1:	48 8d 15 bd 40 00 00 	lea    0x40bd(%rip),%rdx        # 94a5 <__PRETTY_FUNCTION__.0+0x25>
    53e8:	eb ab                	jmp    5395 <cmd_help+0xf5>
    53ea:	66 0f 1f 44 00 00    	nopw   0x0(%rax,%rax,1)
    53f0:	41 80 7c 24 01 00    	cmpb   $0x0,0x1(%r12)
    53f6:	0f 85 fd fe ff ff    	jne    52f9 <cmd_help+0x59>
    53fc:	b8 02 00 00 00       	mov    $0x2,%eax
    5401:	48 8d 15 82 43 00 00 	lea    0x4382(%rip),%rdx        # 978a <__func__.1+0xf2>
    5408:	eb 8b                	jmp    5395 <cmd_help+0xf5>
    540a:	66 0f 1f 44 00 00    	nopw   0x0(%rax,%rax,1)
    5410:	41 80 7c 24 01 69    	cmpb   $0x69,0x1(%r12)
    5416:	0f 85 ec fe ff ff    	jne    5308 <cmd_help+0x68>
    541c:	41 80 7c 24 02 00    	cmpb   $0x0,0x2(%r12)
    5422:	0f 85 e0 fe ff ff    	jne    5308 <cmd_help+0x68>
    5428:	b8 03 00 00 00       	mov    $0x3,%eax
    542d:	48 8d 15 58 43 00 00 	lea    0x4358(%rip),%rdx        # 978c <__func__.1+0xf4>
    5434:	e9 5c ff ff ff       	jmp    5395 <cmd_help+0xf5>
    5439:	0f 1f 80 00 00 00 00 	nopl   0x0(%rax)
    5440:	41 80 7c 24 01 00    	cmpb   $0x0,0x1(%r12)
    5446:	0f 85 df fe ff ff    	jne    532b <cmd_help+0x8b>
    544c:	b8 05 00 00 00       	mov    $0x5,%eax
    5451:	48 8d 15 65 43 00 00 	lea    0x4365(%rip),%rdx        # 97bd <__func__.1+0x125>
    5458:	e9 38 ff ff ff       	jmp    5395 <cmd_help+0xf5>
    545d:	0f 1f 00             	nopl   (%rax)
    5460:	83 fb 77             	cmp    $0x77,%ebx
    5463:	74 7b                	je     54e0 <cmd_help+0x240>
    5465:	83 fb 62             	cmp    $0x62,%ebx
    5468:	0f 84 92 00 00 00    	je     5500 <cmd_help+0x260>
    546e:	4c 89 e2             	mov    %r12,%rdx
    5471:	48 8d 35 2c 43 00 00 	lea    0x432c(%rip),%rsi        # 97a4 <__func__.1+0x10c>
    5478:	bf 01 00 00 00       	mov    $0x1,%edi
    547d:	31 c0                	xor    %eax,%eax
    547f:	e8 cc ce ff ff       	call   2350 <__printf_chk@plt>
    5484:	48 83 c4 08          	add    $0x8,%rsp
    5488:	31 c0                	xor    %eax,%eax
    548a:	5b                   	pop    %rbx
    548b:	5d                   	pop    %rbp
    548c:	41 5c                	pop    %r12
    548e:	41 5d                	pop    %r13
    5490:	c3                   	ret    
    5491:	0f 1f 80 00 00 00 00 	nopl   0x0(%rax)
    5498:	48 8d 1d 81 85 00 00 	lea    0x8581(%rip),%rbx        # da20 <cmd_table>
    549f:	48 8d 2d f5 42 00 00 	lea    0x42f5(%rip),%rbp        # 979b <__func__.1+0x103>
    54a6:	4c 8d a3 20 01 00 00 	lea    0x120(%rbx),%r12
    54ad:	0f 1f 00             	nopl   (%rax)
    54b0:	48 8b 4b 08          	mov    0x8(%rbx),%rcx
    54b4:	48 8b 13             	mov    (%rbx),%rdx
    54b7:	48 89 ee             	mov    %rbp,%rsi
    54ba:	bf 01 00 00 00       	mov    $0x1,%edi
    54bf:	31 c0                	xor    %eax,%eax
    54c1:	48 83 c3 18          	add    $0x18,%rbx
    54c5:	e8 86 ce ff ff       	call   2350 <__printf_chk@plt>
    54ca:	4c 39 e3             	cmp    %r12,%rbx
    54cd:	75 e1                	jne    54b0 <cmd_help+0x210>
    54cf:	48 83 c4 08          	add    $0x8,%rsp
    54d3:	31 c0                	xor    %eax,%eax
    54d5:	5b                   	pop    %rbx
    54d6:	5d                   	pop    %rbp
    54d7:	41 5c                	pop    %r12
    54d9:	41 5d                	pop    %r13
    54db:	c3                   	ret    
    54dc:	0f 1f 40 00          	nopl   0x0(%rax)
    54e0:	41 80 7c 24 01 00    	cmpb   $0x0,0x1(%r12)
    54e6:	0f 85 79 ff ff ff    	jne    5465 <cmd_help+0x1c5>
    54ec:	b8 0a 00 00 00       	mov    $0xa,%eax
    54f1:	48 8d 15 be 41 00 00 	lea    0x41be(%rip),%rdx        # 96b6 <__func__.1+0x1e>
    54f8:	e9 98 fe ff ff       	jmp    5395 <cmd_help+0xf5>
    54fd:	0f 1f 00             	nopl   (%rax)
    5500:	41 80 7c 24 01 00    	cmpb   $0x0,0x1(%r12)
    5506:	b8 0b 00 00 00       	mov    $0xb,%eax
    550b:	48 8d 15 9b 47 00 00 	lea    0x479b(%rip),%rdx        # 9cad <__PRETTY_FUNCTION__.0+0x15d>
    5512:	0f 85 56 ff ff ff    	jne    546e <cmd_help+0x1ce>
    5518:	e9 78 fe ff ff       	jmp    5395 <cmd_help+0xf5>
    551d:	b8 07 00 00 00       	mov    $0x7,%eax
    5522:	48 8d 15 7d 41 00 00 	lea    0x417d(%rip),%rdx        # 96a6 <__func__.1+0xe>
    5529:	e9 67 fe ff ff       	jmp    5395 <cmd_help+0xf5>
    552e:	48 89 da             	mov    %rbx,%rdx
    5531:	e9 5f fe ff ff       	jmp    5395 <cmd_help+0xf5>
    5536:	b8 04 00 00 00       	mov    $0x4,%eax
    553b:	48 89 ea             	mov    %rbp,%rdx
    553e:	e9 52 fe ff ff       	jmp    5395 <cmd_help+0xf5>
    5543:	b8 06 00 00 00       	mov    $0x6,%eax
    5548:	48 8d 15 8d 3e 00 00 	lea    0x3e8d(%rip),%rdx        # 93dc <__PRETTY_FUNCTION__.1+0x1f4>
    554f:	e9 41 fe ff ff       	jmp    5395 <cmd_help+0xf5>
    5554:	b8 08 00 00 00       	mov    $0x8,%eax
    5559:	48 89 ea             	mov    %rbp,%rdx
    555c:	e9 34 fe ff ff       	jmp    5395 <cmd_help+0xf5>
    5561:	66 66 2e 0f 1f 84 00 	data16 cs nopw 0x0(%rax,%rax,1)
    5568:	00 00 00 00 
    556c:	0f 1f 40 00          	nopl   0x0(%rax)

0000000000005570 <cmd_b>:
    5570:	f3 0f 1e fa          	endbr64 
    5574:	48 83 ec 18          	sub    $0x18,%rsp
    5578:	48 8d 35 3b 42 00 00 	lea    0x423b(%rip),%rsi        # 97ba <__func__.1+0x122>
    557f:	64 48 8b 04 25 28 00 	mov    %fs:0x28,%rax
    5586:	00 00 
    5588:	48 89 44 24 08       	mov    %rax,0x8(%rsp)
    558d:	31 c0                	xor    %eax,%eax
    558f:	48 8d 54 24 04       	lea    0x4(%rsp),%rdx
    5594:	e8 f7 ce ff ff       	call   2490 <__isoc99_sscanf@plt>
    5599:	85 c0                	test   %eax,%eax
    559b:	74 43                	je     55e0 <cmd_b+0x70>
    559d:	8b 7c 24 04          	mov    0x4(%rsp),%edi
    55a1:	40 f6 c7 03          	test   $0x3,%dil
    55a5:	75 21                	jne    55c8 <cmd_b+0x58>
    55a7:	e8 54 05 00 00       	call   5b00 <new_bp>
    55ac:	48 8b 44 24 08       	mov    0x8(%rsp),%rax
    55b1:	64 48 2b 04 25 28 00 	sub    %fs:0x28,%rax
    55b8:	00 00 
    55ba:	75 32                	jne    55ee <cmd_b+0x7e>
    55bc:	31 c0                	xor    %eax,%eax
    55be:	48 83 c4 18          	add    $0x18,%rsp
    55c2:	c3                   	ret    
    55c3:	0f 1f 44 00 00       	nopl   0x0(%rax,%rax,1)
    55c8:	48 8d 3d f0 41 00 00 	lea    0x41f0(%rip),%rdi        # 97bf <__func__.1+0x127>
    55cf:	e8 fc cf ff ff       	call   25d0 <puts@plt>
    55d4:	eb d6                	jmp    55ac <cmd_b+0x3c>
    55d6:	66 2e 0f 1f 84 00 00 	cs nopw 0x0(%rax,%rax,1)
    55dd:	00 00 00 
    55e0:	48 8d 3d c1 40 00 00 	lea    0x40c1(%rip),%rdi        # 96a8 <__func__.1+0x10>
    55e7:	e8 e4 cf ff ff       	call   25d0 <puts@plt>
    55ec:	eb be                	jmp    55ac <cmd_b+0x3c>
    55ee:	e8 cd ce ff ff       	call   24c0 <__stack_chk_fail@plt>
    55f3:	66 66 2e 0f 1f 84 00 	data16 cs nopw 0x0(%rax,%rax,1)
    55fa:	00 00 00 00 
    55fe:	66 90                	xchg   %ax,%ax

0000000000005600 <cmd_si>:
    5600:	f3 0f 1e fa          	endbr64 
    5604:	48 83 ec 08          	sub    $0x8,%rsp
    5608:	48 85 ff             	test   %rdi,%rdi
    560b:	74 23                	je     5630 <cmd_si+0x30>
    560d:	ba 0a 00 00 00       	mov    $0xa,%edx
    5612:	31 f6                	xor    %esi,%esi
    5614:	e8 87 cf ff ff       	call   25a0 <strtol@plt>
    5619:	48 63 f8             	movslq %eax,%rdi
    561c:	85 c0                	test   %eax,%eax
    561e:	7e 20                	jle    5640 <cmd_si+0x40>
    5620:	e8 cb f4 ff ff       	call   4af0 <cpu_exec>
    5625:	31 c0                	xor    %eax,%eax
    5627:	48 83 c4 08          	add    $0x8,%rsp
    562b:	c3                   	ret    
    562c:	0f 1f 40 00          	nopl   0x0(%rax)
    5630:	bf 01 00 00 00       	mov    $0x1,%edi
    5635:	eb e9                	jmp    5620 <cmd_si+0x20>
    5637:	66 0f 1f 84 00 00 00 	nopw   0x0(%rax,%rax,1)
    563e:	00 00 
    5640:	48 8d 35 83 41 00 00 	lea    0x4183(%rip),%rsi        # 97ca <__func__.1+0x132>
    5647:	bf 01 00 00 00       	mov    $0x1,%edi
    564c:	31 c0                	xor    %eax,%eax
    564e:	e8 fd cc ff ff       	call   2350 <__printf_chk@plt>
    5653:	31 c0                	xor    %eax,%eax
    5655:	48 83 c4 08          	add    $0x8,%rsp
    5659:	c3                   	ret    
    565a:	66 0f 1f 44 00 00    	nopw   0x0(%rax,%rax,1)

0000000000005660 <cmd_w>:
    5660:	f3 0f 1e fa          	endbr64 
    5664:	48 83 ec 08          	sub    $0x8,%rsp
    5668:	48 85 ff             	test   %rdi,%rdi
    566b:	74 13                	je     5680 <cmd_w+0x20>
    566d:	e8 8e 13 00 00       	call   6a00 <new_wp>
    5672:	31 c0                	xor    %eax,%eax
    5674:	48 83 c4 08          	add    $0x8,%rsp
    5678:	c3                   	ret    
    5679:	0f 1f 80 00 00 00 00 	nopl   0x0(%rax)
    5680:	48 8d 3d 21 40 00 00 	lea    0x4021(%rip),%rdi        # 96a8 <__func__.1+0x10>
    5687:	e8 44 cf ff ff       	call   25d0 <puts@plt>
    568c:	31 c0                	xor    %eax,%eax
    568e:	48 83 c4 08          	add    $0x8,%rsp
    5692:	c3                   	ret    
    5693:	66 66 2e 0f 1f 84 00 	data16 cs nopw 0x0(%rax,%rax,1)
    569a:	00 00 00 00 
    569e:	66 90                	xchg   %ax,%ax

00000000000056a0 <sdb_set_batch_mode>:
    56a0:	f3 0f 1e fa          	endbr64 
    56a4:	c7 05 6a af 00 00 01 	movl   $0x1,0xaf6a(%rip)        # 10618 <is_batch_mode>
    56ab:	00 00 00 
    56ae:	c3                   	ret    
    56af:	90                   	nop

00000000000056b0 <sdb_mainloop>:
    56b0:	f3 0f 1e fa          	endbr64 
    56b4:	41 57                	push   %r15
    56b6:	41 56                	push   %r14
    56b8:	41 55                	push   %r13
    56ba:	4c 8d 2d 1e 41 00 00 	lea    0x411e(%rip),%r13        # 97df <__func__.1+0x147>
    56c1:	41 54                	push   %r12
    56c3:	4c 8d 25 0f 41 00 00 	lea    0x410f(%rip),%r12        # 97d9 <__func__.1+0x141>
    56ca:	55                   	push   %rbp
    56cb:	53                   	push   %rbx
    56cc:	48 83 ec 08          	sub    $0x8,%rsp
    56d0:	8b 05 42 af 00 00    	mov    0xaf42(%rip),%eax        # 10618 <is_batch_mode>
    56d6:	85 c0                	test   %eax,%eax
    56d8:	0f 85 48 02 00 00    	jne    5926 <sdb_mainloop+0x276>
    56de:	66 90                	xchg   %ax,%ax
    56e0:	4c 8b 35 29 af 00 00 	mov    0xaf29(%rip),%r14        # 10610 <line_read.0>
    56e7:	4d 85 f6             	test   %r14,%r14
    56ea:	74 13                	je     56ff <sdb_mainloop+0x4f>
    56ec:	4c 89 f7             	mov    %r14,%rdi
    56ef:	e8 2c ce ff ff       	call   2520 <free@plt>
    56f4:	48 c7 05 11 af 00 00 	movq   $0x0,0xaf11(%rip)        # 10610 <line_read.0>
    56fb:	00 00 00 00 
    56ff:	4c 89 e7             	mov    %r12,%rdi
    5702:	e8 39 cd ff ff       	call   2440 <readline@plt>
    5707:	48 89 05 02 af 00 00 	mov    %rax,0xaf02(%rip)        # 10610 <line_read.0>
    570e:	49 89 c6             	mov    %rax,%r14
    5711:	48 85 c0             	test   %rax,%rax
    5714:	0f 84 ba 00 00 00    	je     57d4 <sdb_mainloop+0x124>
    571a:	80 38 00             	cmpb   $0x0,(%rax)
    571d:	0f 85 4d 01 00 00    	jne    5870 <sdb_mainloop+0x1c0>
    5723:	4c 89 f7             	mov    %r14,%rdi
    5726:	e8 75 cc ff ff       	call   23a0 <strlen@plt>
    572b:	4c 89 ee             	mov    %r13,%rsi
    572e:	4c 89 f7             	mov    %r14,%rdi
    5731:	48 89 c3             	mov    %rax,%rbx
    5734:	e8 a7 ce ff ff       	call   25e0 <strtok@plt>
    5739:	49 89 c7             	mov    %rax,%r15
    573c:	48 85 c0             	test   %rax,%rax
    573f:	74 a6                	je     56e7 <sdb_mainloop+0x37>
    5741:	48 89 c7             	mov    %rax,%rdi
    5744:	e8 57 cc ff ff       	call   23a0 <strlen@plt>
    5749:	4d 8d 04 1e          	lea    (%r14,%rbx,1),%r8
    574d:	49 8d 6c 07 01       	lea    0x1(%r15,%rax,1),%rbp
    5752:	31 c0                	xor    %eax,%eax
    5754:	4c 39 c5             	cmp    %r8,%rbp
    5757:	48 0f 43 e8          	cmovae %rax,%rbp
    575b:	e8 c0 d0 ff ff       	call   2820 <sdl_clear_event_queue>
    5760:	48 8d 35 1e 40 00 00 	lea    0x401e(%rip),%rsi        # 9785 <__func__.1+0xed>
    5767:	4c 89 ff             	mov    %r15,%rdi
    576a:	e8 21 ce ff ff       	call   2590 <strcmp@plt>
    576f:	85 c0                	test   %eax,%eax
    5771:	74 45                	je     57b8 <sdb_mainloop+0x108>
    5773:	45 0f b6 37          	movzbl (%r15),%r14d
    5777:	41 83 fe 63          	cmp    $0x63,%r14d
    577b:	75 0b                	jne    5788 <sdb_mainloop+0xd8>
    577d:	41 80 7f 01 00       	cmpb   $0x0,0x1(%r15)
    5782:	0f 84 48 01 00 00    	je     58d0 <sdb_mainloop+0x220>
    5788:	41 83 fe 71          	cmp    $0x71,%r14d
    578c:	75 0b                	jne    5799 <sdb_mainloop+0xe9>
    578e:	41 80 7f 01 00       	cmpb   $0x0,0x1(%r15)
    5793:	0f 84 47 01 00 00    	je     58e0 <sdb_mainloop+0x230>
    5799:	41 0f b6 1f          	movzbl (%r15),%ebx
    579d:	83 fb 73             	cmp    $0x73,%ebx
    57a0:	75 46                	jne    57e8 <sdb_mainloop+0x138>
    57a2:	41 80 7f 01 69       	cmpb   $0x69,0x1(%r15)
    57a7:	75 3f                	jne    57e8 <sdb_mainloop+0x138>
    57a9:	41 80 7f 02 00       	cmpb   $0x0,0x2(%r15)
    57ae:	75 38                	jne    57e8 <sdb_mainloop+0x138>
    57b0:	b8 03 00 00 00       	mov    $0x3,%eax
    57b5:	0f 1f 00             	nopl   (%rax)
    57b8:	48 98                	cltq   
    57ba:	48 89 ef             	mov    %rbp,%rdi
    57bd:	48 8d 14 40          	lea    (%rax,%rax,2),%rdx
    57c1:	48 8d 05 58 82 00 00 	lea    0x8258(%rip),%rax        # da20 <cmd_table>
    57c8:	ff 54 d0 10          	call   *0x10(%rax,%rdx,8)
    57cc:	85 c0                	test   %eax,%eax
    57ce:	0f 89 0c ff ff ff    	jns    56e0 <sdb_mainloop+0x30>
    57d4:	48 83 c4 08          	add    $0x8,%rsp
    57d8:	5b                   	pop    %rbx
    57d9:	5d                   	pop    %rbp
    57da:	41 5c                	pop    %r12
    57dc:	41 5d                	pop    %r13
    57de:	41 5e                	pop    %r14
    57e0:	41 5f                	pop    %r15
    57e2:	c3                   	ret    
    57e3:	0f 1f 44 00 00       	nopl   0x0(%rax,%rax,1)
    57e8:	48 8d 35 a0 3f 00 00 	lea    0x3fa0(%rip),%rsi        # 978f <__func__.1+0xf7>
    57ef:	4c 89 ff             	mov    %r15,%rdi
    57f2:	e8 99 cd ff ff       	call   2590 <strcmp@plt>
    57f7:	85 c0                	test   %eax,%eax
    57f9:	0f 84 eb 00 00 00    	je     58ea <sdb_mainloop+0x23a>
    57ff:	41 83 fe 78          	cmp    $0x78,%r14d
    5803:	75 0b                	jne    5810 <sdb_mainloop+0x160>
    5805:	41 80 7f 01 00       	cmpb   $0x0,0x1(%r15)
    580a:	0f 84 e4 00 00 00    	je     58f4 <sdb_mainloop+0x244>
    5810:	41 83 fe 70          	cmp    $0x70,%r14d
    5814:	75 0b                	jne    5821 <sdb_mainloop+0x171>
    5816:	41 80 7f 01 00       	cmpb   $0x0,0x1(%r15)
    581b:	0f 84 dd 00 00 00    	je     58fe <sdb_mainloop+0x24e>
    5821:	41 83 fe 64          	cmp    $0x64,%r14d
    5825:	75 0b                	jne    5832 <sdb_mainloop+0x182>
    5827:	41 80 7f 01 00       	cmpb   $0x0,0x1(%r15)
    582c:	0f 84 d6 00 00 00    	je     5908 <sdb_mainloop+0x258>
    5832:	48 8d 35 5b 3f 00 00 	lea    0x3f5b(%rip),%rsi        # 9794 <__func__.1+0xfc>
    5839:	4c 89 ff             	mov    %r15,%rdi
    583c:	e8 4f cd ff ff       	call   2590 <strcmp@plt>
    5841:	85 c0                	test   %eax,%eax
    5843:	0f 84 c9 00 00 00    	je     5912 <sdb_mainloop+0x262>
    5849:	83 fb 78             	cmp    $0x78,%ebx
    584c:	75 42                	jne    5890 <sdb_mainloop+0x1e0>
    584e:	41 80 7f 01 64       	cmpb   $0x64,0x1(%r15)
    5853:	75 3b                	jne    5890 <sdb_mainloop+0x1e0>
    5855:	41 80 7f 02 00       	cmpb   $0x0,0x2(%r15)
    585a:	75 34                	jne    5890 <sdb_mainloop+0x1e0>
    585c:	b8 09 00 00 00       	mov    $0x9,%eax
    5861:	e9 52 ff ff ff       	jmp    57b8 <sdb_mainloop+0x108>
    5866:	66 2e 0f 1f 84 00 00 	cs nopw 0x0(%rax,%rax,1)
    586d:	00 00 00 
    5870:	48 89 c7             	mov    %rax,%rdi
    5873:	e8 e8 cc ff ff       	call   2560 <add_history@plt>
    5878:	4c 8b 35 91 ad 00 00 	mov    0xad91(%rip),%r14        # 10610 <line_read.0>
    587f:	4d 85 f6             	test   %r14,%r14
    5882:	0f 85 9b fe ff ff    	jne    5723 <sdb_mainloop+0x73>
    5888:	e9 47 ff ff ff       	jmp    57d4 <sdb_mainloop+0x124>
    588d:	0f 1f 00             	nopl   (%rax)
    5890:	41 83 fe 77          	cmp    $0x77,%r14d
    5894:	75 07                	jne    589d <sdb_mainloop+0x1ed>
    5896:	41 80 7f 01 00       	cmpb   $0x0,0x1(%r15)
    589b:	74 7f                	je     591c <sdb_mainloop+0x26c>
    589d:	41 83 fe 62          	cmp    $0x62,%r14d
    58a1:	75 10                	jne    58b3 <sdb_mainloop+0x203>
    58a3:	41 80 7f 01 00       	cmpb   $0x0,0x1(%r15)
    58a8:	b8 0b 00 00 00       	mov    $0xb,%eax
    58ad:	0f 84 05 ff ff ff    	je     57b8 <sdb_mainloop+0x108>
    58b3:	4c 89 fa             	mov    %r15,%rdx
    58b6:	48 8d 35 e7 3e 00 00 	lea    0x3ee7(%rip),%rsi        # 97a4 <__func__.1+0x10c>
    58bd:	bf 01 00 00 00       	mov    $0x1,%edi
    58c2:	31 c0                	xor    %eax,%eax
    58c4:	e8 87 ca ff ff       	call   2350 <__printf_chk@plt>
    58c9:	e9 12 fe ff ff       	jmp    56e0 <sdb_mainloop+0x30>
    58ce:	66 90                	xchg   %ax,%ax
    58d0:	b8 01 00 00 00       	mov    $0x1,%eax
    58d5:	e9 de fe ff ff       	jmp    57b8 <sdb_mainloop+0x108>
    58da:	66 0f 1f 44 00 00    	nopw   0x0(%rax,%rax,1)
    58e0:	b8 02 00 00 00       	mov    $0x2,%eax
    58e5:	e9 ce fe ff ff       	jmp    57b8 <sdb_mainloop+0x108>
    58ea:	b8 04 00 00 00       	mov    $0x4,%eax
    58ef:	e9 c4 fe ff ff       	jmp    57b8 <sdb_mainloop+0x108>
    58f4:	b8 05 00 00 00       	mov    $0x5,%eax
    58f9:	e9 ba fe ff ff       	jmp    57b8 <sdb_mainloop+0x108>
    58fe:	b8 06 00 00 00       	mov    $0x6,%eax
    5903:	e9 b0 fe ff ff       	jmp    57b8 <sdb_mainloop+0x108>
    5908:	b8 07 00 00 00       	mov    $0x7,%eax
    590d:	e9 a6 fe ff ff       	jmp    57b8 <sdb_mainloop+0x108>
    5912:	b8 08 00 00 00       	mov    $0x8,%eax
    5917:	e9 9c fe ff ff       	jmp    57b8 <sdb_mainloop+0x108>
    591c:	b8 0a 00 00 00       	mov    $0xa,%eax
    5921:	e9 92 fe ff ff       	jmp    57b8 <sdb_mainloop+0x108>
    5926:	48 83 c4 08          	add    $0x8,%rsp
    592a:	48 c7 c7 ff ff ff ff 	mov    $0xffffffffffffffff,%rdi
    5931:	5b                   	pop    %rbx
    5932:	5d                   	pop    %rbp
    5933:	41 5c                	pop    %r12
    5935:	41 5d                	pop    %r13
    5937:	41 5e                	pop    %r14
    5939:	41 5f                	pop    %r15
    593b:	e9 b0 f1 ff ff       	jmp    4af0 <cpu_exec>

0000000000005940 <init_sdb>:
    5940:	f3 0f 1e fa          	endbr64 
    5944:	48 83 ec 08          	sub    $0x8,%rsp
    5948:	31 c0                	xor    %eax,%eax
    594a:	e8 31 05 00 00       	call   5e80 <init_regex>
    594f:	31 c0                	xor    %eax,%eax
    5951:	e8 3a 0f 00 00       	call   6890 <init_wp_pool>
    5956:	31 c0                	xor    %eax,%eax
    5958:	48 83 c4 08          	add    $0x8,%rsp
    595c:	e9 0f 00 00 00       	jmp    5970 <init_bp_pool>
    5961:	66 2e 0f 1f 84 00 00 	cs nopw 0x0(%rax,%rax,1)
    5968:	00 00 00 
    596b:	0f 1f 44 00 00       	nopl   0x0(%rax,%rax,1)

0000000000005970 <init_bp_pool>:
    5970:	f3 0f 1e fa          	endbr64 
    5974:	83 3d b5 ac 00 00 01 	cmpl   $0x1,0xacb5(%rip)        # 10630 <has_initialed>
    597b:	0f 84 75 01 00 00    	je     5af6 <init_bp_pool+0x186>
    5981:	48 8d 05 d0 ac 00 00 	lea    0xacd0(%rip),%rax        # 10658 <bp_pool+0x18>
    5988:	c7 05 ae ac 00 00 00 	movl   $0x0,0xacae(%rip)        # 10640 <bp_pool>
    598f:	00 00 00 
    5992:	48 89 05 af ac 00 00 	mov    %rax,0xacaf(%rip)        # 10648 <bp_pool+0x8>
    5999:	48 83 c0 18          	add    $0x18,%rax
    599d:	48 89 05 bc ac 00 00 	mov    %rax,0xacbc(%rip)        # 10660 <bp_pool+0x20>
    59a4:	48 83 c0 18          	add    $0x18,%rax
    59a8:	48 89 05 c9 ac 00 00 	mov    %rax,0xacc9(%rip)        # 10678 <bp_pool+0x38>
    59af:	48 83 c0 18          	add    $0x18,%rax
    59b3:	48 89 05 d6 ac 00 00 	mov    %rax,0xacd6(%rip)        # 10690 <bp_pool+0x50>
    59ba:	48 83 c0 18          	add    $0x18,%rax
    59be:	48 89 05 e3 ac 00 00 	mov    %rax,0xace3(%rip)        # 106a8 <bp_pool+0x68>
    59c5:	48 83 c0 18          	add    $0x18,%rax
    59c9:	48 89 05 f0 ac 00 00 	mov    %rax,0xacf0(%rip)        # 106c0 <bp_pool+0x80>
    59d0:	48 83 c0 18          	add    $0x18,%rax
    59d4:	48 89 05 fd ac 00 00 	mov    %rax,0xacfd(%rip)        # 106d8 <bp_pool+0x98>
    59db:	48 83 c0 18          	add    $0x18,%rax
    59df:	48 89 05 0a ad 00 00 	mov    %rax,0xad0a(%rip)        # 106f0 <bp_pool+0xb0>
    59e6:	48 83 c0 18          	add    $0x18,%rax
    59ea:	48 89 05 17 ad 00 00 	mov    %rax,0xad17(%rip)        # 10708 <bp_pool+0xc8>
    59f1:	48 83 c0 18          	add    $0x18,%rax
    59f5:	48 89 05 24 ad 00 00 	mov    %rax,0xad24(%rip)        # 10720 <bp_pool+0xe0>
    59fc:	48 83 c0 18          	add    $0x18,%rax
    5a00:	48 89 05 31 ad 00 00 	mov    %rax,0xad31(%rip)        # 10738 <bp_pool+0xf8>
    5a07:	48 83 c0 18          	add    $0x18,%rax
    5a0b:	48 89 05 3e ad 00 00 	mov    %rax,0xad3e(%rip)        # 10750 <bp_pool+0x110>
    5a12:	48 83 c0 18          	add    $0x18,%rax
    5a16:	48 89 05 4b ad 00 00 	mov    %rax,0xad4b(%rip)        # 10768 <bp_pool+0x128>
    5a1d:	48 83 c0 18          	add    $0x18,%rax
    5a21:	48 89 05 58 ad 00 00 	mov    %rax,0xad58(%rip)        # 10780 <bp_pool+0x140>
    5a28:	48 83 c0 18          	add    $0x18,%rax
    5a2c:	48 89 05 65 ad 00 00 	mov    %rax,0xad65(%rip)        # 10798 <bp_pool+0x158>
    5a33:	48 2d 68 01 00 00    	sub    $0x168,%rax
    5a39:	c7 05 15 ac 00 00 01 	movl   $0x1,0xac15(%rip)        # 10658 <bp_pool+0x18>
    5a40:	00 00 00 
    5a43:	c7 05 23 ac 00 00 02 	movl   $0x2,0xac23(%rip)        # 10670 <bp_pool+0x30>
    5a4a:	00 00 00 
    5a4d:	c7 05 31 ac 00 00 03 	movl   $0x3,0xac31(%rip)        # 10688 <bp_pool+0x48>
    5a54:	00 00 00 
    5a57:	c7 05 3f ac 00 00 04 	movl   $0x4,0xac3f(%rip)        # 106a0 <bp_pool+0x60>
    5a5e:	00 00 00 
    5a61:	c7 05 4d ac 00 00 05 	movl   $0x5,0xac4d(%rip)        # 106b8 <bp_pool+0x78>
    5a68:	00 00 00 
    5a6b:	c7 05 5b ac 00 00 06 	movl   $0x6,0xac5b(%rip)        # 106d0 <bp_pool+0x90>
    5a72:	00 00 00 
    5a75:	c7 05 69 ac 00 00 07 	movl   $0x7,0xac69(%rip)        # 106e8 <bp_pool+0xa8>
    5a7c:	00 00 00 
    5a7f:	c7 05 77 ac 00 00 08 	movl   $0x8,0xac77(%rip)        # 10700 <bp_pool+0xc0>
    5a86:	00 00 00 
    5a89:	c7 05 85 ac 00 00 09 	movl   $0x9,0xac85(%rip)        # 10718 <bp_pool+0xd8>
    5a90:	00 00 00 
    5a93:	c7 05 93 ac 00 00 0a 	movl   $0xa,0xac93(%rip)        # 10730 <bp_pool+0xf0>
    5a9a:	00 00 00 
    5a9d:	c7 05 a1 ac 00 00 0b 	movl   $0xb,0xaca1(%rip)        # 10748 <bp_pool+0x108>
    5aa4:	00 00 00 
    5aa7:	c7 05 af ac 00 00 0c 	movl   $0xc,0xacaf(%rip)        # 10760 <bp_pool+0x120>
    5aae:	00 00 00 
    5ab1:	c7 05 bd ac 00 00 0d 	movl   $0xd,0xacbd(%rip)        # 10778 <bp_pool+0x138>
    5ab8:	00 00 00 
    5abb:	c7 05 cb ac 00 00 0e 	movl   $0xe,0xaccb(%rip)        # 10790 <bp_pool+0x150>
    5ac2:	00 00 00 
    5ac5:	c7 05 d9 ac 00 00 0f 	movl   $0xf,0xacd9(%rip)        # 107a8 <bp_pool+0x168>
    5acc:	00 00 00 
    5acf:	48 c7 05 d6 ac 00 00 	movq   $0x0,0xacd6(%rip)        # 107b0 <bp_pool+0x170>
    5ad6:	00 00 00 00 
    5ada:	48 c7 05 43 ab 00 00 	movq   $0x0,0xab43(%rip)        # 10628 <bp_head>
    5ae1:	00 00 00 00 
    5ae5:	48 89 05 4c ab 00 00 	mov    %rax,0xab4c(%rip)        # 10638 <bp_free>
    5aec:	c7 05 3a ab 00 00 01 	movl   $0x1,0xab3a(%rip)        # 10630 <has_initialed>
    5af3:	00 00 00 
    5af6:	c3                   	ret    
    5af7:	66 0f 1f 84 00 00 00 	nopw   0x0(%rax,%rax,1)
    5afe:	00 00 

0000000000005b00 <new_bp>:
    5b00:	f3 0f 1e fa          	endbr64 
    5b04:	41 55                	push   %r13
    5b06:	8d 87 00 00 00 e4    	lea    -0x1c000000(%rdi),%eax
    5b0c:	41 54                	push   %r12
    5b0e:	48 83 ec 08          	sub    $0x8,%rsp
    5b12:	3d ff ff ff 07       	cmp    $0x7ffffff,%eax
    5b17:	0f 87 f3 00 00 00    	ja     5c10 <new_bp+0x110>
    5b1d:	be 04 00 00 00       	mov    $0x4,%esi
    5b22:	41 89 fd             	mov    %edi,%r13d
    5b25:	e8 26 1d 00 00       	call   7850 <break_ifetch>
    5b2a:	66 41 0f 6e c5       	movd   %r13d,%xmm0
    5b2f:	66 0f 6e c8          	movd   %eax,%xmm1
    5b33:	25 00 80 ff ff       	and    $0xffff8000,%eax
    5b38:	66 0f 62 c1          	punpckldq %xmm1,%xmm0
    5b3c:	3d 00 00 2a 00       	cmp    $0x2a0000,%eax
    5b41:	0f 84 f9 00 00 00    	je     5c40 <new_bp+0x140>
    5b47:	4c 8b 25 ea aa 00 00 	mov    0xaaea(%rip),%r12        # 10638 <bp_free>
    5b4e:	4d 85 e4             	test   %r12,%r12
    5b51:	0f 84 d9 00 00 00    	je     5c30 <new_bp+0x130>
    5b57:	49 8b 44 24 08       	mov    0x8(%r12),%rax
    5b5c:	49 c7 44 24 08 00 00 	movq   $0x0,0x8(%r12)
    5b63:	00 00 
    5b65:	48 89 05 cc aa 00 00 	mov    %rax,0xaacc(%rip)        # 10638 <bp_free>
    5b6c:	48 8b 05 b5 aa 00 00 	mov    0xaab5(%rip),%rax        # 10628 <bp_head>
    5b73:	48 85 c0             	test   %rax,%rax
    5b76:	74 78                	je     5bf0 <new_bp+0xf0>
    5b78:	41 8b 14 24          	mov    (%r12),%edx
    5b7c:	39 10                	cmp    %edx,(%rax)
    5b7e:	7c 54                	jl     5bd4 <new_bp+0xd4>
    5b80:	49 89 44 24 08       	mov    %rax,0x8(%r12)
    5b85:	4c 89 25 9c aa 00 00 	mov    %r12,0xaa9c(%rip)        # 10628 <bp_head>
    5b8c:	ba 00 00 2a 00       	mov    $0x2a0000,%edx
    5b91:	be 04 00 00 00       	mov    $0x4,%esi
    5b96:	44 89 ef             	mov    %r13d,%edi
    5b99:	66 41 0f d6 44 24 10 	movq   %xmm0,0x10(%r12)
    5ba0:	e8 eb 1c 00 00       	call   7890 <break_write>
    5ba5:	41 8b 14 24          	mov    (%r12),%edx
    5ba9:	44 89 e9             	mov    %r13d,%ecx
    5bac:	31 c0                	xor    %eax,%eax
    5bae:	48 8d 35 c7 3d 00 00 	lea    0x3dc7(%rip),%rsi        # 997c <__func__.1+0x2e4>
    5bb5:	bf 01 00 00 00       	mov    $0x1,%edi
    5bba:	e8 91 c7 ff ff       	call   2350 <__printf_chk@plt>
    5bbf:	48 83 c4 08          	add    $0x8,%rsp
    5bc3:	4c 89 e0             	mov    %r12,%rax
    5bc6:	41 5c                	pop    %r12
    5bc8:	41 5d                	pop    %r13
    5bca:	c3                   	ret    
    5bcb:	0f 1f 44 00 00       	nopl   0x0(%rax,%rax,1)
    5bd0:	3b 10                	cmp    (%rax),%edx
    5bd2:	7c 2c                	jl     5c00 <new_bp+0x100>
    5bd4:	48 89 c1             	mov    %rax,%rcx
    5bd7:	48 8b 40 08          	mov    0x8(%rax),%rax
    5bdb:	48 85 c0             	test   %rax,%rax
    5bde:	75 f0                	jne    5bd0 <new_bp+0xd0>
    5be0:	4c 89 61 08          	mov    %r12,0x8(%rcx)
    5be4:	eb a6                	jmp    5b8c <new_bp+0x8c>
    5be6:	66 2e 0f 1f 84 00 00 	cs nopw 0x0(%rax,%rax,1)
    5bed:	00 00 00 
    5bf0:	4c 89 25 31 aa 00 00 	mov    %r12,0xaa31(%rip)        # 10628 <bp_head>
    5bf7:	eb 93                	jmp    5b8c <new_bp+0x8c>
    5bf9:	0f 1f 80 00 00 00 00 	nopl   0x0(%rax)
    5c00:	49 89 44 24 08       	mov    %rax,0x8(%r12)
    5c05:	4c 89 61 08          	mov    %r12,0x8(%rcx)
    5c09:	eb 81                	jmp    5b8c <new_bp+0x8c>
    5c0b:	0f 1f 44 00 00       	nopl   0x0(%rax,%rax,1)
    5c10:	48 8d 3d 51 3d 00 00 	lea    0x3d51(%rip),%rdi        # 9968 <__func__.1+0x2d0>
    5c17:	45 31 e4             	xor    %r12d,%r12d
    5c1a:	e8 b1 c9 ff ff       	call   25d0 <puts@plt>
    5c1f:	48 83 c4 08          	add    $0x8,%rsp
    5c23:	4c 89 e0             	mov    %r12,%rax
    5c26:	41 5c                	pop    %r12
    5c28:	41 5d                	pop    %r13
    5c2a:	c3                   	ret    
    5c2b:	0f 1f 44 00 00       	nopl   0x0(%rax,%rax,1)
    5c30:	48 8d 3d 5c 3d 00 00 	lea    0x3d5c(%rip),%rdi        # 9993 <__func__.1+0x2fb>
    5c37:	e8 94 c9 ff ff       	call   25d0 <puts@plt>
    5c3c:	eb 81                	jmp    5bbf <new_bp+0xbf>
    5c3e:	66 90                	xchg   %ax,%ax
    5c40:	48 8d 3d d1 3d 00 00 	lea    0x3dd1(%rip),%rdi        # 9a18 <__func__.1+0x380>
    5c47:	45 31 e4             	xor    %r12d,%r12d
    5c4a:	e8 81 c9 ff ff       	call   25d0 <puts@plt>
    5c4f:	e9 6b ff ff ff       	jmp    5bbf <new_bp+0xbf>
    5c54:	66 66 2e 0f 1f 84 00 	data16 cs nopw 0x0(%rax,%rax,1)
    5c5b:	00 00 00 00 
    5c5f:	90                   	nop

0000000000005c60 <free_bp>:
    5c60:	f3 0f 1e fa          	endbr64 
    5c64:	41 54                	push   %r12
    5c66:	31 c0                	xor    %eax,%eax
    5c68:	55                   	push   %rbp
    5c69:	53                   	push   %rbx
    5c6a:	48 8b 1d b7 a9 00 00 	mov    0xa9b7(%rip),%rbx        # 10628 <bp_head>
    5c71:	48 85 db             	test   %rbx,%rbx
    5c74:	74 6f                	je     5ce5 <free_bp+0x85>
    5c76:	89 fd                	mov    %edi,%ebp
    5c78:	39 3b                	cmp    %edi,(%rbx)
    5c7a:	75 78                	jne    5cf4 <free_bp+0x94>
    5c7c:	49 89 dc             	mov    %rbx,%r12
    5c7f:	8b 53 14             	mov    0x14(%rbx),%edx
    5c82:	8b 7b 10             	mov    0x10(%rbx),%edi
    5c85:	be 04 00 00 00       	mov    $0x4,%esi
    5c8a:	e8 01 1c 00 00       	call   7890 <break_write>
    5c8f:	8b 4b 10             	mov    0x10(%rbx),%ecx
    5c92:	31 c0                	xor    %eax,%eax
    5c94:	89 ea                	mov    %ebp,%edx
    5c96:	48 8d 35 0f 3d 00 00 	lea    0x3d0f(%rip),%rsi        # 99ac <__func__.1+0x314>
    5c9d:	bf 01 00 00 00       	mov    $0x1,%edi
    5ca2:	e8 a9 c6 ff ff       	call   2350 <__printf_chk@plt>
    5ca7:	48 39 1d 7a a9 00 00 	cmp    %rbx,0xa97a(%rip)        # 10628 <bp_head>
    5cae:	48 8b 43 08          	mov    0x8(%rbx),%rax
    5cb2:	0f 84 90 00 00 00    	je     5d48 <free_bp+0xe8>
    5cb8:	49 89 44 24 08       	mov    %rax,0x8(%r12)
    5cbd:	48 8b 05 74 a9 00 00 	mov    0xa974(%rip),%rax        # 10638 <bp_free>
    5cc4:	48 c7 43 08 00 00 00 	movq   $0x0,0x8(%rbx)
    5ccb:	00 
    5ccc:	48 85 c0             	test   %rax,%rax
    5ccf:	74 5f                	je     5d30 <free_bp+0xd0>
    5cd1:	39 28                	cmp    %ebp,(%rax)
    5cd3:	7c 3f                	jl     5d14 <free_bp+0xb4>
    5cd5:	48 89 1d 5c a9 00 00 	mov    %rbx,0xa95c(%rip)        # 10638 <bp_free>
    5cdc:	48 89 43 08          	mov    %rax,0x8(%rbx)
    5ce0:	b8 01 00 00 00       	mov    $0x1,%eax
    5ce5:	5b                   	pop    %rbx
    5ce6:	5d                   	pop    %rbp
    5ce7:	41 5c                	pop    %r12
    5ce9:	c3                   	ret    
    5cea:	66 0f 1f 44 00 00    	nopw   0x0(%rax,%rax,1)
    5cf0:	39 2b                	cmp    %ebp,(%rbx)
    5cf2:	74 8b                	je     5c7f <free_bp+0x1f>
    5cf4:	49 89 dc             	mov    %rbx,%r12
    5cf7:	48 8b 5b 08          	mov    0x8(%rbx),%rbx
    5cfb:	48 85 db             	test   %rbx,%rbx
    5cfe:	75 f0                	jne    5cf0 <free_bp+0x90>
    5d00:	5b                   	pop    %rbx
    5d01:	31 c0                	xor    %eax,%eax
    5d03:	5d                   	pop    %rbp
    5d04:	41 5c                	pop    %r12
    5d06:	c3                   	ret    
    5d07:	66 0f 1f 84 00 00 00 	nopw   0x0(%rax,%rax,1)
    5d0e:	00 00 
    5d10:	39 28                	cmp    %ebp,(%rax)
    5d12:	7f 44                	jg     5d58 <free_bp+0xf8>
    5d14:	48 89 c2             	mov    %rax,%rdx
    5d17:	48 8b 40 08          	mov    0x8(%rax),%rax
    5d1b:	48 85 c0             	test   %rax,%rax
    5d1e:	75 f0                	jne    5d10 <free_bp+0xb0>
    5d20:	48 89 5a 08          	mov    %rbx,0x8(%rdx)
    5d24:	b8 01 00 00 00       	mov    $0x1,%eax
    5d29:	eb ba                	jmp    5ce5 <free_bp+0x85>
    5d2b:	0f 1f 44 00 00       	nopl   0x0(%rax,%rax,1)
    5d30:	48 89 1d 01 a9 00 00 	mov    %rbx,0xa901(%rip)        # 10638 <bp_free>
    5d37:	b8 01 00 00 00       	mov    $0x1,%eax
    5d3c:	5b                   	pop    %rbx
    5d3d:	5d                   	pop    %rbp
    5d3e:	41 5c                	pop    %r12
    5d40:	c3                   	ret    
    5d41:	0f 1f 80 00 00 00 00 	nopl   0x0(%rax)
    5d48:	48 89 05 d9 a8 00 00 	mov    %rax,0xa8d9(%rip)        # 10628 <bp_head>
    5d4f:	e9 64 ff ff ff       	jmp    5cb8 <free_bp+0x58>
    5d54:	0f 1f 40 00          	nopl   0x0(%rax)
    5d58:	48 89 43 08          	mov    %rax,0x8(%rbx)
    5d5c:	b8 01 00 00 00       	mov    $0x1,%eax
    5d61:	48 89 5a 08          	mov    %rbx,0x8(%rdx)
    5d65:	5b                   	pop    %rbx
    5d66:	5d                   	pop    %rbp
    5d67:	41 5c                	pop    %r12
    5d69:	c3                   	ret    
    5d6a:	66 0f 1f 44 00 00    	nopw   0x0(%rax,%rax,1)

0000000000005d70 <display_breakpoint>:
    5d70:	f3 0f 1e fa          	endbr64 
    5d74:	55                   	push   %rbp
    5d75:	53                   	push   %rbx
    5d76:	48 83 ec 08          	sub    $0x8,%rsp
    5d7a:	48 8b 1d a7 a8 00 00 	mov    0xa8a7(%rip),%rbx        # 10628 <bp_head>
    5d81:	48 85 db             	test   %rbx,%rbx
    5d84:	74 42                	je     5dc8 <display_breakpoint+0x58>
    5d86:	48 8d 3d 4d 3c 00 00 	lea    0x3c4d(%rip),%rdi        # 99da <__func__.1+0x342>
    5d8d:	48 8d 2d 5a 3c 00 00 	lea    0x3c5a(%rip),%rbp        # 99ee <__func__.1+0x356>
    5d94:	e8 37 c8 ff ff       	call   25d0 <puts@plt>
    5d99:	0f 1f 80 00 00 00 00 	nopl   0x0(%rax)
    5da0:	8b 4b 10             	mov    0x10(%rbx),%ecx
    5da3:	8b 13                	mov    (%rbx),%edx
    5da5:	48 89 ee             	mov    %rbp,%rsi
    5da8:	bf 01 00 00 00       	mov    $0x1,%edi
    5dad:	31 c0                	xor    %eax,%eax
    5daf:	e8 9c c5 ff ff       	call   2350 <__printf_chk@plt>
    5db4:	48 8b 5b 08          	mov    0x8(%rbx),%rbx
    5db8:	48 85 db             	test   %rbx,%rbx
    5dbb:	75 e3                	jne    5da0 <display_breakpoint+0x30>
    5dbd:	48 83 c4 08          	add    $0x8,%rsp
    5dc1:	5b                   	pop    %rbx
    5dc2:	5d                   	pop    %rbp
    5dc3:	c3                   	ret    
    5dc4:	0f 1f 40 00          	nopl   0x0(%rax)
    5dc8:	48 83 c4 08          	add    $0x8,%rsp
    5dcc:	48 8d 3d f3 3b 00 00 	lea    0x3bf3(%rip),%rdi        # 99c6 <__func__.1+0x32e>
    5dd3:	5b                   	pop    %rbx
    5dd4:	5d                   	pop    %rbp
    5dd5:	e9 f6 c7 ff ff       	jmp    25d0 <puts@plt>
    5dda:	66 0f 1f 44 00 00    	nopw   0x0(%rax,%rax,1)

0000000000005de0 <scan_bp>:
    5de0:	f3 0f 1e fa          	endbr64 
    5de4:	53                   	push   %rbx
    5de5:	48 8b 1d 3c a8 00 00 	mov    0xa83c(%rip),%rbx        # 10628 <bp_head>
    5dec:	48 85 db             	test   %rbx,%rbx
    5def:	74 3f                	je     5e30 <scan_bp+0x50>
    5df1:	89 fa                	mov    %edi,%edx
    5df3:	eb 0c                	jmp    5e01 <scan_bp+0x21>
    5df5:	0f 1f 00             	nopl   (%rax)
    5df8:	48 8b 5b 08          	mov    0x8(%rbx),%rbx
    5dfc:	48 85 db             	test   %rbx,%rbx
    5dff:	74 2f                	je     5e30 <scan_bp+0x50>
    5e01:	39 53 10             	cmp    %edx,0x10(%rbx)
    5e04:	75 f2                	jne    5df8 <scan_bp+0x18>
    5e06:	48 8d 35 f6 3b 00 00 	lea    0x3bf6(%rip),%rsi        # 9a03 <__func__.1+0x36b>
    5e0d:	bf 01 00 00 00       	mov    $0x1,%edi
    5e12:	31 c0                	xor    %eax,%eax
    5e14:	e8 37 c5 ff ff       	call   2350 <__printf_chk@plt>
    5e19:	8b 43 14             	mov    0x14(%rbx),%eax
    5e1c:	5b                   	pop    %rbx
    5e1d:	89 05 fd a7 00 00    	mov    %eax,0xa7fd(%rip)        # 10620 <replaced_inst>
    5e23:	b8 01 00 00 00       	mov    $0x1,%eax
    5e28:	c3                   	ret    
    5e29:	0f 1f 80 00 00 00 00 	nopl   0x0(%rax)
    5e30:	31 c0                	xor    %eax,%eax
    5e32:	5b                   	pop    %rbx
    5e33:	c3                   	ret    
    5e34:	66 66 2e 0f 1f 84 00 	data16 cs nopw 0x0(%rax,%rax,1)
    5e3b:	00 00 00 00 
    5e3f:	90                   	nop

0000000000005e40 <reload_bp>:
    5e40:	f3 0f 1e fa          	endbr64 
    5e44:	53                   	push   %rbx
    5e45:	48 8b 1d dc a7 00 00 	mov    0xa7dc(%rip),%rbx        # 10628 <bp_head>
    5e4c:	48 85 db             	test   %rbx,%rbx
    5e4f:	74 22                	je     5e73 <reload_bp+0x33>
    5e51:	0f 1f 80 00 00 00 00 	nopl   0x0(%rax)
    5e58:	8b 7b 10             	mov    0x10(%rbx),%edi
    5e5b:	ba 00 00 2a 00       	mov    $0x2a0000,%edx
    5e60:	be 04 00 00 00       	mov    $0x4,%esi
    5e65:	e8 26 1a 00 00       	call   7890 <break_write>
    5e6a:	48 8b 5b 08          	mov    0x8(%rbx),%rbx
    5e6e:	48 85 db             	test   %rbx,%rbx
    5e71:	75 e5                	jne    5e58 <reload_bp+0x18>
    5e73:	c7 05 a3 a6 00 00 00 	movl   $0x0,0xa6a3(%rip)        # 10520 <break_flag>
    5e7a:	00 00 00 
    5e7d:	5b                   	pop    %rbx
    5e7e:	c3                   	ret    
    5e7f:	90                   	nop

0000000000005e80 <init_regex>:
    5e80:	f3 0f 1e fa          	endbr64 
    5e84:	41 55                	push   %r13
    5e86:	41 54                	push   %r12
    5e88:	55                   	push   %rbp
    5e89:	48 8d 2d 50 f1 00 00 	lea    0xf150(%rip),%rbp        # 14fe0 <re>
    5e90:	53                   	push   %rbx
    5e91:	48 8d 1d a8 7c 00 00 	lea    0x7ca8(%rip),%rbx        # db40 <rules>
    5e98:	4c 8d ab d0 00 00 00 	lea    0xd0(%rbx),%r13
    5e9f:	48 81 ec 98 00 00 00 	sub    $0x98,%rsp
    5ea6:	64 48 8b 04 25 28 00 	mov    %fs:0x28,%rax
    5ead:	00 00 
    5eaf:	48 89 84 24 88 00 00 	mov    %rax,0x88(%rsp)
    5eb6:	00 
    5eb7:	31 c0                	xor    %eax,%eax
    5eb9:	0f 1f 80 00 00 00 00 	nopl   0x0(%rax)
    5ec0:	4c 8b 23             	mov    (%rbx),%r12
    5ec3:	ba 01 00 00 00       	mov    $0x1,%edx
    5ec8:	48 89 ef             	mov    %rbp,%rdi
    5ecb:	4c 89 e6             	mov    %r12,%rsi
    5ece:	e8 1d c6 ff ff       	call   24f0 <regcomp@plt>
    5ed3:	85 c0                	test   %eax,%eax
    5ed5:	75 32                	jne    5f09 <init_regex+0x89>
    5ed7:	48 83 c3 10          	add    $0x10,%rbx
    5edb:	48 83 c5 40          	add    $0x40,%rbp
    5edf:	4c 39 eb             	cmp    %r13,%rbx
    5ee2:	75 dc                	jne    5ec0 <init_regex+0x40>
    5ee4:	48 8b 84 24 88 00 00 	mov    0x88(%rsp),%rax
    5eeb:	00 
    5eec:	64 48 2b 04 25 28 00 	sub    %fs:0x28,%rax
    5ef3:	00 00 
    5ef5:	0f 85 81 00 00 00    	jne    5f7c <init_regex+0xfc>
    5efb:	48 81 c4 98 00 00 00 	add    $0x98,%rsp
    5f02:	5b                   	pop    %rbx
    5f03:	5d                   	pop    %rbp
    5f04:	41 5c                	pop    %r12
    5f06:	41 5d                	pop    %r13
    5f08:	c3                   	ret    
    5f09:	49 89 e5             	mov    %rsp,%r13
    5f0c:	b9 80 00 00 00       	mov    $0x80,%ecx
    5f11:	48 89 ee             	mov    %rbp,%rsi
    5f14:	89 c7                	mov    %eax,%edi
    5f16:	4c 89 ea             	mov    %r13,%rdx
    5f19:	e8 92 c4 ff ff       	call   23b0 <regerror@plt>
    5f1e:	48 8b 3d db 90 00 00 	mov    0x90db(%rip),%rdi        # f000 <stdout@GLIBC_2.2.5>
    5f25:	e8 d6 c5 ff ff       	call   2500 <fflush@plt>
    5f2a:	4c 89 e9             	mov    %r13,%rcx
    5f2d:	be 01 00 00 00       	mov    $0x1,%esi
    5f32:	4d 89 e0             	mov    %r12,%r8
    5f35:	48 8b 3d 04 91 00 00 	mov    0x9104(%rip),%rdi        # f040 <stderr@GLIBC_2.2.5>
    5f3c:	48 8d 15 fd 3a 00 00 	lea    0x3afd(%rip),%rdx        # 9a40 <__func__.1+0x3a8>
    5f43:	31 c0                	xor    %eax,%eax
    5f45:	e8 b6 c6 ff ff       	call   2600 <__fprintf_chk@plt>
    5f4a:	48 8b 3d 17 f6 00 00 	mov    0xf617(%rip),%rdi        # 15568 <log_fp>
    5f51:	e8 aa c5 ff ff       	call   2500 <fflush@plt>
    5f56:	31 c0                	xor    %eax,%eax
    5f58:	e8 73 eb ff ff       	call   4ad0 <assert_fail_msg>
    5f5d:	48 8d 0d ec 3b 00 00 	lea    0x3bec(%rip),%rcx        # 9b50 <__PRETTY_FUNCTION__.0>
    5f64:	ba 47 00 00 00       	mov    $0x47,%edx
    5f69:	48 8d 35 22 3b 00 00 	lea    0x3b22(%rip),%rsi        # 9a92 <__func__.1+0x3fa>
    5f70:	48 8d 3d b9 30 00 00 	lea    0x30b9(%rip),%rdi        # 9030 <_IO_stdin_used+0x30>
    5f77:	e8 84 c4 ff ff       	call   2400 <__assert_fail@plt>
    5f7c:	e8 3f c5 ff ff       	call   24c0 <__stack_chk_fail@plt>
    5f81:	66 66 2e 0f 1f 84 00 	data16 cs nopw 0x0(%rax,%rax,1)
    5f88:	00 00 00 00 
    5f8c:	0f 1f 40 00          	nopl   0x0(%rax)

0000000000005f90 <skip_brackets>:
    5f90:	f3 0f 1e fa          	endbr64 
    5f94:	8d 46 ff             	lea    -0x1(%rsi),%eax
    5f97:	39 f8                	cmp    %edi,%eax
    5f99:	7c 61                	jl     5ffc <skip_brackets+0x6c>
    5f9b:	48 63 f6             	movslq %esi,%rsi
    5f9e:	48 8d 15 3b a8 00 00 	lea    0xa83b(%rip),%rdx        # 107e0 <tokens>
    5fa5:	45 31 c0             	xor    %r8d,%r8d
    5fa8:	48 8d 0c f6          	lea    (%rsi,%rsi,8),%rcx
    5fac:	be 01 00 00 00       	mov    $0x1,%esi
    5fb1:	48 8d 14 8a          	lea    (%rdx,%rcx,4),%rdx
    5fb5:	eb 1f                	jmp    5fd6 <skip_brackets+0x46>
    5fb7:	66 0f 1f 84 00 00 00 	nopw   0x0(%rax,%rax,1)
    5fbe:	00 00 
    5fc0:	83 f9 29             	cmp    $0x29,%ecx
    5fc3:	0f 94 c1             	sete   %cl
    5fc6:	0f b6 c9             	movzbl %cl,%ecx
    5fc9:	01 ce                	add    %ecx,%esi
    5fcb:	83 e8 01             	sub    $0x1,%eax
    5fce:	48 83 ea 24          	sub    $0x24,%rdx
    5fd2:	39 c7                	cmp    %eax,%edi
    5fd4:	7f 1a                	jg     5ff0 <skip_brackets+0x60>
    5fd6:	8b 4a dc             	mov    -0x24(%rdx),%ecx
    5fd9:	83 f9 28             	cmp    $0x28,%ecx
    5fdc:	75 e2                	jne    5fc0 <skip_brackets+0x30>
    5fde:	41 83 c0 01          	add    $0x1,%r8d
    5fe2:	41 39 f0             	cmp    %esi,%r8d
    5fe5:	75 e4                	jne    5fcb <skip_brackets+0x3b>
    5fe7:	c3                   	ret    
    5fe8:	0f 1f 84 00 00 00 00 	nopl   0x0(%rax,%rax,1)
    5fef:	00 
    5ff0:	41 39 f0             	cmp    %esi,%r8d
    5ff3:	ba ff ff ff ff       	mov    $0xffffffff,%edx
    5ff8:	0f 45 c2             	cmovne %edx,%eax
    5ffb:	c3                   	ret    
    5ffc:	b8 ff ff ff ff       	mov    $0xffffffff,%eax
    6001:	c3                   	ret    
    6002:	66 66 2e 0f 1f 84 00 	data16 cs nopw 0x0(%rax,%rax,1)
    6009:	00 00 00 00 
    600d:	0f 1f 00             	nopl   (%rax)

0000000000006010 <left_op_priority>:
    6010:	f3 0f 1e fa          	endbr64 
    6014:	81 ff 02 01 00 00    	cmp    $0x102,%edi
    601a:	7f 2c                	jg     6048 <left_op_priority+0x38>
    601c:	b8 01 00 00 00       	mov    $0x1,%eax
    6021:	81 ff 00 01 00 00    	cmp    $0x100,%edi
    6027:	7f 5c                	jg     6085 <left_op_priority+0x75>
    6029:	83 ff 2d             	cmp    $0x2d,%edi
    602c:	74 52                	je     6080 <left_op_priority+0x70>
    602e:	7e 30                	jle    6060 <left_op_priority+0x50>
    6030:	83 ff 2f             	cmp    $0x2f,%edi
    6033:	ba 03 00 00 00       	mov    $0x3,%edx
    6038:	b8 00 01 00 00       	mov    $0x100,%eax
    603d:	0f 44 c2             	cmove  %edx,%eax
    6040:	c3                   	ret    
    6041:	0f 1f 80 00 00 00 00 	nopl   0x0(%rax)
    6048:	31 c0                	xor    %eax,%eax
    604a:	81 ff 06 01 00 00    	cmp    $0x106,%edi
    6050:	0f 95 c0             	setne  %al
    6053:	c1 e0 08             	shl    $0x8,%eax
    6056:	c3                   	ret    
    6057:	66 0f 1f 84 00 00 00 	nopw   0x0(%rax,%rax,1)
    605e:	00 00 
    6060:	b8 03 00 00 00       	mov    $0x3,%eax
    6065:	83 ff 2a             	cmp    $0x2a,%edi
    6068:	74 1b                	je     6085 <left_op_priority+0x75>
    606a:	83 ff 2b             	cmp    $0x2b,%edi
    606d:	ba 02 00 00 00       	mov    $0x2,%edx
    6072:	b8 00 01 00 00       	mov    $0x100,%eax
    6077:	0f 44 c2             	cmove  %edx,%eax
    607a:	c3                   	ret    
    607b:	0f 1f 44 00 00       	nopl   0x0(%rax,%rax,1)
    6080:	b8 02 00 00 00       	mov    $0x2,%eax
    6085:	c3                   	ret    
    6086:	66 2e 0f 1f 84 00 00 	cs nopw 0x0(%rax,%rax,1)
    608d:	00 00 00 

0000000000006090 <found_main_op>:
    6090:	f3 0f 1e fa          	endbr64 
    6094:	39 fe                	cmp    %edi,%esi
    6096:	0f 8c 5e 01 00 00    	jl     61fa <found_main_op+0x16a>
    609c:	53                   	push   %rbx
    609d:	41 89 f1             	mov    %esi,%r9d
    60a0:	89 f0                	mov    %esi,%eax
    60a2:	41 b8 00 01 00 00    	mov    $0x100,%r8d
    60a8:	41 ba ff ff ff ff    	mov    $0xffffffff,%r10d
    60ae:	4c 8d 1d 2b a7 00 00 	lea    0xa72b(%rip),%r11        # 107e0 <tokens>
    60b5:	eb 1b                	jmp    60d2 <found_main_op+0x42>
    60b7:	66 0f 1f 84 00 00 00 	nopw   0x0(%rax,%rax,1)
    60be:	00 00 
    60c0:	81 f9 00 01 00 00    	cmp    $0x100,%ecx
    60c6:	0f 8f a4 00 00 00    	jg     6170 <found_main_op+0xe0>
    60cc:	89 f0                	mov    %esi,%eax
    60ce:	39 f7                	cmp    %esi,%edi
    60d0:	7f 47                	jg     6119 <found_main_op+0x89>
    60d2:	48 63 d0             	movslq %eax,%rdx
    60d5:	8d 70 ff             	lea    -0x1(%rax),%esi
    60d8:	48 8d 14 d2          	lea    (%rdx,%rdx,8),%rdx
    60dc:	49 8d 14 93          	lea    (%r11,%rdx,4),%rdx
    60e0:	8b 0a                	mov    (%rdx),%ecx
    60e2:	83 f9 29             	cmp    $0x29,%ecx
    60e5:	0f 84 a5 00 00 00    	je     6190 <found_main_op+0x100>
    60eb:	83 f9 2f             	cmp    $0x2f,%ecx
    60ee:	0f 84 fc 00 00 00    	je     61f0 <found_main_op+0x160>
    60f4:	7e 5a                	jle    6150 <found_main_op+0xc0>
    60f6:	81 f9 02 01 00 00    	cmp    $0x102,%ecx
    60fc:	7e c2                	jle    60c0 <found_main_op+0x30>
    60fe:	81 f9 06 01 00 00    	cmp    $0x106,%ecx
    6104:	75 c6                	jne    60cc <found_main_op+0x3c>
    6106:	31 d2                	xor    %edx,%edx
    6108:	41 39 d0             	cmp    %edx,%r8d
    610b:	7e bf                	jle    60cc <found_main_op+0x3c>
    610d:	41 89 c2             	mov    %eax,%r10d
    6110:	41 89 d0             	mov    %edx,%r8d
    6113:	89 f0                	mov    %esi,%eax
    6115:	39 f7                	cmp    %esi,%edi
    6117:	7e b9                	jle    60d2 <found_main_op+0x42>
    6119:	41 83 f8 03          	cmp    $0x3,%r8d
    611d:	7e 2c                	jle    614b <found_main_op+0xbb>
    611f:	48 63 c7             	movslq %edi,%rax
    6122:	48 8d 04 c0          	lea    (%rax,%rax,8),%rax
    6126:	49 8d 14 83          	lea    (%r11,%rax,4),%rdx
    612a:	eb 10                	jmp    613c <found_main_op+0xac>
    612c:	0f 1f 40 00          	nopl   0x0(%rax)
    6130:	83 c7 01             	add    $0x1,%edi
    6133:	48 83 c2 24          	add    $0x24,%rdx
    6137:	41 39 f9             	cmp    %edi,%r9d
    613a:	7c 0f                	jl     614b <found_main_op+0xbb>
    613c:	8b 02                	mov    (%rdx),%eax
    613e:	2d 07 01 00 00       	sub    $0x107,%eax
    6143:	83 f8 01             	cmp    $0x1,%eax
    6146:	77 e8                	ja     6130 <found_main_op+0xa0>
    6148:	41 89 fa             	mov    %edi,%r10d
    614b:	44 89 d0             	mov    %r10d,%eax
    614e:	5b                   	pop    %rbx
    614f:	c3                   	ret    
    6150:	8d 51 d5             	lea    -0x2b(%rcx),%edx
    6153:	83 e2 fd             	and    $0xfffffffd,%edx
    6156:	74 28                	je     6180 <found_main_op+0xf0>
    6158:	ba 03 00 00 00       	mov    $0x3,%edx
    615d:	83 f9 2a             	cmp    $0x2a,%ecx
    6160:	74 a6                	je     6108 <found_main_op+0x78>
    6162:	e9 65 ff ff ff       	jmp    60cc <found_main_op+0x3c>
    6167:	66 0f 1f 84 00 00 00 	nopw   0x0(%rax,%rax,1)
    616e:	00 00 
    6170:	ba 01 00 00 00       	mov    $0x1,%edx
    6175:	eb 91                	jmp    6108 <found_main_op+0x78>
    6177:	66 0f 1f 84 00 00 00 	nopw   0x0(%rax,%rax,1)
    617e:	00 00 
    6180:	ba 02 00 00 00       	mov    $0x2,%edx
    6185:	e9 7e ff ff ff       	jmp    6108 <found_main_op+0x78>
    618a:	66 0f 1f 44 00 00    	nopw   0x0(%rax,%rax,1)
    6190:	b9 01 00 00 00       	mov    $0x1,%ecx
    6195:	31 db                	xor    %ebx,%ebx
    6197:	39 f7                	cmp    %esi,%edi
    6199:	7e 1d                	jle    61b8 <found_main_op+0x128>
    619b:	eb 63                	jmp    6200 <found_main_op+0x170>
    619d:	0f 1f 00             	nopl   (%rax)
    61a0:	83 f8 29             	cmp    $0x29,%eax
    61a3:	0f 94 c0             	sete   %al
    61a6:	0f b6 c0             	movzbl %al,%eax
    61a9:	01 c1                	add    %eax,%ecx
    61ab:	8d 46 ff             	lea    -0x1(%rsi),%eax
    61ae:	48 83 ea 24          	sub    $0x24,%rdx
    61b2:	39 c7                	cmp    %eax,%edi
    61b4:	7f 1a                	jg     61d0 <found_main_op+0x140>
    61b6:	89 c6                	mov    %eax,%esi
    61b8:	8b 42 dc             	mov    -0x24(%rdx),%eax
    61bb:	83 f8 28             	cmp    $0x28,%eax
    61be:	75 e0                	jne    61a0 <found_main_op+0x110>
    61c0:	83 c3 01             	add    $0x1,%ebx
    61c3:	39 cb                	cmp    %ecx,%ebx
    61c5:	75 e4                	jne    61ab <found_main_op+0x11b>
    61c7:	83 ee 01             	sub    $0x1,%esi
    61ca:	e9 fd fe ff ff       	jmp    60cc <found_main_op+0x3c>
    61cf:	90                   	nop
    61d0:	39 cb                	cmp    %ecx,%ebx
    61d2:	75 2c                	jne    6200 <found_main_op+0x170>
    61d4:	48 63 d0             	movslq %eax,%rdx
    61d7:	83 ee 02             	sub    $0x2,%esi
    61da:	48 8d 14 d2          	lea    (%rdx,%rdx,8),%rdx
    61de:	41 8b 0c 93          	mov    (%r11,%rdx,4),%ecx
    61e2:	83 f9 2f             	cmp    $0x2f,%ecx
    61e5:	0f 85 09 ff ff ff    	jne    60f4 <found_main_op+0x64>
    61eb:	0f 1f 44 00 00       	nopl   0x0(%rax,%rax,1)
    61f0:	ba 03 00 00 00       	mov    $0x3,%edx
    61f5:	e9 0e ff ff ff       	jmp    6108 <found_main_op+0x78>
    61fa:	b8 ff ff ff ff       	mov    $0xffffffff,%eax
    61ff:	c3                   	ret    
    6200:	8b 0d b6 a5 00 00    	mov    0xa5b6(%rip),%ecx        # 107bc <bp_pool+0x17c>
    6206:	be fe ff ff ff       	mov    $0xfffffffe,%esi
    620b:	b8 ff ff ff ff       	mov    $0xffffffff,%eax
    6210:	e9 d6 fe ff ff       	jmp    60eb <found_main_op+0x5b>
    6215:	66 66 2e 0f 1f 84 00 	data16 cs nopw 0x0(%rax,%rax,1)
    621c:	00 00 00 00 

0000000000006220 <eval>:
    6220:	f3 0f 1e fa          	endbr64 
    6224:	41 56                	push   %r14
    6226:	41 55                	push   %r13
    6228:	41 54                	push   %r12
    622a:	55                   	push   %rbp
    622b:	53                   	push   %rbx
    622c:	48 83 ec 10          	sub    $0x10,%rsp
    6230:	64 48 8b 04 25 28 00 	mov    %fs:0x28,%rax
    6237:	00 00 
    6239:	48 89 44 24 08       	mov    %rax,0x8(%rsp)
    623e:	31 c0                	xor    %eax,%eax
    6240:	39 fe                	cmp    %edi,%esi
    6242:	0f 8c 3d 01 00 00    	jl     6385 <eval+0x165>
    6248:	41 89 f4             	mov    %esi,%r12d
    624b:	48 89 d3             	mov    %rdx,%rbx
    624e:	0f 84 80 01 00 00    	je     63d4 <eval+0x1b4>
    6254:	48 63 c6             	movslq %esi,%rax
    6257:	4c 8d 2d 82 a5 00 00 	lea    0xa582(%rip),%r13        # 107e0 <tokens>
    625e:	89 fd                	mov    %edi,%ebp
    6260:	48 8d 04 c0          	lea    (%rax,%rax,8),%rax
    6264:	4d 8d 4c 85 00       	lea    0x0(%r13,%rax,4),%r9
    6269:	41 83 39 29          	cmpl   $0x29,(%r9)
    626d:	75 74                	jne    62e3 <eval+0xc3>
    626f:	90                   	nop
    6270:	45 8d 44 24 ff       	lea    -0x1(%r12),%r8d
    6275:	41 39 e8             	cmp    %ebp,%r8d
    6278:	0f 8c 0e 01 00 00    	jl     638c <eval+0x16c>
    627e:	4c 89 ca             	mov    %r9,%rdx
    6281:	44 89 c0             	mov    %r8d,%eax
    6284:	be 01 00 00 00       	mov    $0x1,%esi
    6289:	31 ff                	xor    %edi,%edi
    628b:	eb 1d                	jmp    62aa <eval+0x8a>
    628d:	0f 1f 00             	nopl   (%rax)
    6290:	83 f9 29             	cmp    $0x29,%ecx
    6293:	0f 94 c1             	sete   %cl
    6296:	0f b6 c9             	movzbl %cl,%ecx
    6299:	01 ce                	add    %ecx,%esi
    629b:	83 e8 01             	sub    $0x1,%eax
    629e:	48 83 ea 24          	sub    $0x24,%rdx
    62a2:	39 e8                	cmp    %ebp,%eax
    62a4:	0f 8c a6 00 00 00    	jl     6350 <eval+0x130>
    62aa:	8b 4a dc             	mov    -0x24(%rdx),%ecx
    62ad:	83 f9 28             	cmp    $0x28,%ecx
    62b0:	75 de                	jne    6290 <eval+0x70>
    62b2:	83 c7 01             	add    $0x1,%edi
    62b5:	39 f7                	cmp    %esi,%edi
    62b7:	75 e2                	jne    629b <eval+0x7b>
    62b9:	39 e8                	cmp    %ebp,%eax
    62bb:	0f 85 93 00 00 00    	jne    6354 <eval+0x134>
    62c1:	83 c5 01             	add    $0x1,%ebp
    62c4:	44 39 c5             	cmp    %r8d,%ebp
    62c7:	0f 8f b8 00 00 00    	jg     6385 <eval+0x165>
    62cd:	49 83 e9 24          	sub    $0x24,%r9
    62d1:	44 39 c5             	cmp    %r8d,%ebp
    62d4:	0f 84 04 01 00 00    	je     63de <eval+0x1be>
    62da:	41 83 39 29          	cmpl   $0x29,(%r9)
    62de:	45 89 c4             	mov    %r8d,%r12d
    62e1:	74 8d                	je     6270 <eval+0x50>
    62e3:	44 89 e6             	mov    %r12d,%esi
    62e6:	89 ef                	mov    %ebp,%edi
    62e8:	e8 a3 fd ff ff       	call   6090 <found_main_op>
    62ed:	4c 63 f0             	movslq %eax,%r14
    62f0:	41 83 fe ff          	cmp    $0xffffffff,%r14d
    62f4:	74 63                	je     6359 <eval+0x139>
    62f6:	89 ef                	mov    %ebp,%edi
    62f8:	41 8d 76 ff          	lea    -0x1(%r14),%esi
    62fc:	48 89 da             	mov    %rbx,%rdx
    62ff:	e8 1c ff ff ff       	call   6220 <eval>
    6304:	41 8d 7e 01          	lea    0x1(%r14),%edi
    6308:	48 89 da             	mov    %rbx,%rdx
    630b:	44 89 e6             	mov    %r12d,%esi
    630e:	89 c5                	mov    %eax,%ebp
    6310:	e8 0b ff ff ff       	call   6220 <eval>
    6315:	89 c7                	mov    %eax,%edi
    6317:	4b 8d 04 f6          	lea    (%r14,%r14,8),%rax
    631b:	41 8b 54 85 00       	mov    0x0(%r13,%rax,4),%edx
    6320:	81 fa 08 01 00 00    	cmp    $0x108,%edx
    6326:	7f 5d                	jg     6385 <eval+0x165>
    6328:	81 fa 00 01 00 00    	cmp    $0x100,%edx
    632e:	7e 66                	jle    6396 <eval+0x176>
    6330:	81 ea 01 01 00 00    	sub    $0x101,%edx
    6336:	83 fa 07             	cmp    $0x7,%edx
    6339:	77 4a                	ja     6385 <eval+0x165>
    633b:	48 8d 0d ee 37 00 00 	lea    0x37ee(%rip),%rcx        # 9b30 <__func__.1+0x498>
    6342:	48 63 04 91          	movslq (%rcx,%rdx,4),%rax
    6346:	48 01 c8             	add    %rcx,%rax
    6349:	3e ff e0             	notrack jmp *%rax
    634c:	0f 1f 40 00          	nopl   0x0(%rax)
    6350:	39 f7                	cmp    %esi,%edi
    6352:	75 38                	jne    638c <eval+0x16c>
    6354:	83 f8 ff             	cmp    $0xffffffff,%eax
    6357:	75 8a                	jne    62e3 <eval+0xc3>
    6359:	c7 03 ff ff ff ff    	movl   $0xffffffff,(%rbx)
    635f:	b8 01 00 00 00       	mov    $0x1,%eax
    6364:	48 8b 54 24 08       	mov    0x8(%rsp),%rdx
    6369:	64 48 2b 14 25 28 00 	sub    %fs:0x28,%rdx
    6370:	00 00 
    6372:	0f 85 87 01 00 00    	jne    64ff <eval+0x2df>
    6378:	48 83 c4 10          	add    $0x10,%rsp
    637c:	5b                   	pop    %rbx
    637d:	5d                   	pop    %rbp
    637e:	41 5c                	pop    %r12
    6380:	41 5d                	pop    %r13
    6382:	41 5e                	pop    %r14
    6384:	c3                   	ret    
    6385:	b8 01 00 00 00       	mov    $0x1,%eax
    638a:	eb d8                	jmp    6364 <eval+0x144>
    638c:	b8 ff ff ff ff       	mov    $0xffffffff,%eax
    6391:	e9 23 ff ff ff       	jmp    62b9 <eval+0x99>
    6396:	89 e8                	mov    %ebp,%eax
    6398:	29 f8                	sub    %edi,%eax
    639a:	83 fa 2d             	cmp    $0x2d,%edx
    639d:	74 c5                	je     6364 <eval+0x144>
    639f:	7e 1f                	jle    63c0 <eval+0x1a0>
    63a1:	83 fa 2f             	cmp    $0x2f,%edx
    63a4:	75 df                	jne    6385 <eval+0x165>
    63a6:	85 ff                	test   %edi,%edi
    63a8:	0f 84 fd 00 00 00    	je     64ab <eval+0x28b>
    63ae:	89 e8                	mov    %ebp,%eax
    63b0:	31 d2                	xor    %edx,%edx
    63b2:	f7 f7                	div    %edi
    63b4:	eb ae                	jmp    6364 <eval+0x144>
    63b6:	66 2e 0f 1f 84 00 00 	cs nopw 0x0(%rax,%rax,1)
    63bd:	00 00 00 
    63c0:	83 fa 2a             	cmp    $0x2a,%edx
    63c3:	0f 84 01 01 00 00    	je     64ca <eval+0x2aa>
    63c9:	83 fa 2b             	cmp    $0x2b,%edx
    63cc:	75 b7                	jne    6385 <eval+0x165>
    63ce:	8d 44 3d 00          	lea    0x0(%rbp,%rdi,1),%eax
    63d2:	eb 90                	jmp    6364 <eval+0x144>
    63d4:	41 89 f0             	mov    %esi,%r8d
    63d7:	4c 8d 2d 02 a4 00 00 	lea    0xa402(%rip),%r13        # 107e0 <tokens>
    63de:	49 63 c0             	movslq %r8d,%rax
    63e1:	48 8d 04 c0          	lea    (%rax,%rax,8),%rax
    63e5:	48 c1 e0 02          	shl    $0x2,%rax
    63e9:	41 8b 54 05 00       	mov    0x0(%r13,%rax,1),%edx
    63ee:	81 fa 03 01 00 00    	cmp    $0x103,%edx
    63f4:	0f 84 da 00 00 00    	je     64d4 <eval+0x2b4>
    63fa:	81 fa 04 01 00 00    	cmp    $0x104,%edx
    6400:	0f 84 84 00 00 00    	je     648a <eval+0x26a>
    6406:	45 89 c4             	mov    %r8d,%r12d
    6409:	44 89 c5             	mov    %r8d,%ebp
    640c:	81 fa 05 01 00 00    	cmp    $0x105,%edx
    6412:	0f 85 cb fe ff ff    	jne    62e3 <eval+0xc3>
    6418:	48 8d 74 24 04       	lea    0x4(%rsp),%rsi
    641d:	49 8d 7c 05 04       	lea    0x4(%r13,%rax,1),%rdi
    6422:	e8 19 de ff ff       	call   4240 <isa_reg_str2val>
    6427:	80 7c 24 04 00       	cmpb   $0x0,0x4(%rsp)
    642c:	0f 85 32 ff ff ff    	jne    6364 <eval+0x144>
    6432:	c7 03 00 00 00 00    	movl   $0x0,(%rbx)
    6438:	b8 01 00 00 00       	mov    $0x1,%eax
    643d:	e9 22 ff ff ff       	jmp    6364 <eval+0x144>
    6442:	48 8d 54 24 04       	lea    0x4(%rsp),%rdx
    6447:	be 04 00 00 00       	mov    $0x4,%esi
    644c:	e8 1f 14 00 00       	call   7870 <sdb_vaddr_read>
    6451:	e9 0e ff ff ff       	jmp    6364 <eval+0x144>
    6456:	31 c0                	xor    %eax,%eax
    6458:	39 fd                	cmp    %edi,%ebp
    645a:	0f 94 c0             	sete   %al
    645d:	e9 02 ff ff ff       	jmp    6364 <eval+0x144>
    6462:	31 c0                	xor    %eax,%eax
    6464:	39 fd                	cmp    %edi,%ebp
    6466:	0f 95 c0             	setne  %al
    6469:	e9 f6 fe ff ff       	jmp    6364 <eval+0x144>
    646e:	85 ed                	test   %ebp,%ebp
    6470:	0f 95 c2             	setne  %dl
    6473:	31 c0                	xor    %eax,%eax
    6475:	85 ff                	test   %edi,%edi
    6477:	0f 95 c0             	setne  %al
    647a:	21 d0                	and    %edx,%eax
    647c:	e9 e3 fe ff ff       	jmp    6364 <eval+0x144>
    6481:	89 f8                	mov    %edi,%eax
    6483:	f7 d8                	neg    %eax
    6485:	e9 da fe ff ff       	jmp    6364 <eval+0x144>
    648a:	49 8d 7c 05 04       	lea    0x4(%r13,%rax,1),%rdi
    648f:	48 8d 54 24 04       	lea    0x4(%rsp),%rdx
    6494:	31 c0                	xor    %eax,%eax
    6496:	48 8d 35 1f 33 00 00 	lea    0x331f(%rip),%rsi        # 97bc <__func__.1+0x124>
    649d:	e8 ee bf ff ff       	call   2490 <__isoc99_sscanf@plt>
    64a2:	8b 44 24 04          	mov    0x4(%rsp),%eax
    64a6:	e9 b9 fe ff ff       	jmp    6364 <eval+0x144>
    64ab:	8b 03                	mov    (%rbx),%eax
    64ad:	8d 50 01             	lea    0x1(%rax),%edx
    64b0:	83 fa 01             	cmp    $0x1,%edx
    64b3:	76 40                	jbe    64f5 <eval+0x2d5>
    64b5:	83 f8 fe             	cmp    $0xfffffffe,%eax
    64b8:	74 3b                	je     64f5 <eval+0x2d5>
    64ba:	c7 03 fd ff ff ff    	movl   $0xfffffffd,(%rbx)
    64c0:	b8 ff ff ff ff       	mov    $0xffffffff,%eax
    64c5:	e9 9a fe ff ff       	jmp    6364 <eval+0x144>
    64ca:	89 e8                	mov    %ebp,%eax
    64cc:	0f af c7             	imul   %edi,%eax
    64cf:	e9 90 fe ff ff       	jmp    6364 <eval+0x144>
    64d4:	49 8d 7c 05 04       	lea    0x4(%r13,%rax,1),%rdi
    64d9:	48 8d 54 24 04       	lea    0x4(%rsp),%rdx
    64de:	31 c0                	xor    %eax,%eax
    64e0:	48 8d 35 be 31 00 00 	lea    0x31be(%rip),%rsi        # 96a5 <__func__.1+0xd>
    64e7:	e8 a4 bf ff ff       	call   2490 <__isoc99_sscanf@plt>
    64ec:	8b 44 24 04          	mov    0x4(%rsp),%eax
    64f0:	e9 6f fe ff ff       	jmp    6364 <eval+0x144>
    64f5:	b8 ff ff ff ff       	mov    $0xffffffff,%eax
    64fa:	e9 65 fe ff ff       	jmp    6364 <eval+0x144>
    64ff:	e8 bc bf ff ff       	call   24c0 <__stack_chk_fail@plt>
    6504:	66 66 2e 0f 1f 84 00 	data16 cs nopw 0x0(%rax,%rax,1)
    650b:	00 00 00 00 
    650f:	90                   	nop

0000000000006510 <trans>:
    6510:	f3 0f 1e fa          	endbr64 
    6514:	8b 0d a6 a2 00 00    	mov    0xa2a6(%rip),%ecx        # 107c0 <nr_token>
    651a:	83 f9 01             	cmp    $0x1,%ecx
    651d:	7e 71                	jle    6590 <trans+0x80>
    651f:	48 63 d1             	movslq %ecx,%rdx
    6522:	83 e9 02             	sub    $0x2,%ecx
    6525:	48 8d 05 b4 a2 00 00 	lea    0xa2b4(%rip),%rax        # 107e0 <tokens>
    652c:	48 8d 34 d2          	lea    (%rdx,%rdx,8),%rsi
    6530:	48 29 ca             	sub    %rcx,%rdx
    6533:	48 8d 0c d2          	lea    (%rdx,%rdx,8),%rcx
    6537:	48 8d 15 7e a2 00 00 	lea    0xa27e(%rip),%rdx        # 107bc <bp_pool+0x17c>
    653e:	48 8d 04 b0          	lea    (%rax,%rsi,4),%rax
    6542:	48 8d 34 8a          	lea    (%rdx,%rcx,4),%rsi
    6546:	eb 11                	jmp    6559 <trans+0x49>
    6548:	0f 1f 84 00 00 00 00 	nopl   0x0(%rax,%rax,1)
    654f:	00 
    6550:	48 83 e8 24          	sub    $0x24,%rax
    6554:	48 39 c6             	cmp    %rax,%rsi
    6557:	74 37                	je     6590 <trans+0x80>
    6559:	8b 50 b8             	mov    -0x48(%rax),%edx
    655c:	8d 8a fd fe ff ff    	lea    -0x103(%rdx),%ecx
    6562:	83 f9 02             	cmp    $0x2,%ecx
    6565:	76 e9                	jbe    6550 <trans+0x40>
    6567:	83 fa 29             	cmp    $0x29,%edx
    656a:	74 e4                	je     6550 <trans+0x40>
    656c:	8b 50 dc             	mov    -0x24(%rax),%edx
    656f:	83 fa 2d             	cmp    $0x2d,%edx
    6572:	74 34                	je     65a8 <trans+0x98>
    6574:	83 fa 2a             	cmp    $0x2a,%edx
    6577:	75 d7                	jne    6550 <trans+0x40>
    6579:	c7 40 dc 08 01 00 00 	movl   $0x108,-0x24(%rax)
    6580:	48 83 e8 24          	sub    $0x24,%rax
    6584:	48 39 c6             	cmp    %rax,%rsi
    6587:	75 d0                	jne    6559 <trans+0x49>
    6589:	0f 1f 80 00 00 00 00 	nopl   0x0(%rax)
    6590:	8b 05 4a a2 00 00    	mov    0xa24a(%rip),%eax        # 107e0 <tokens>
    6596:	83 f8 2d             	cmp    $0x2d,%eax
    6599:	74 2d                	je     65c8 <trans+0xb8>
    659b:	83 f8 2a             	cmp    $0x2a,%eax
    659e:	74 18                	je     65b8 <trans+0xa8>
    65a0:	c3                   	ret    
    65a1:	0f 1f 80 00 00 00 00 	nopl   0x0(%rax)
    65a8:	c7 40 dc 07 01 00 00 	movl   $0x107,-0x24(%rax)
    65af:	eb 9f                	jmp    6550 <trans+0x40>
    65b1:	0f 1f 80 00 00 00 00 	nopl   0x0(%rax)
    65b8:	c7 05 1e a2 00 00 08 	movl   $0x108,0xa21e(%rip)        # 107e0 <tokens>
    65bf:	01 00 00 
    65c2:	c3                   	ret    
    65c3:	0f 1f 44 00 00       	nopl   0x0(%rax,%rax,1)
    65c8:	c7 05 0e a2 00 00 07 	movl   $0x107,0xa20e(%rip)        # 107e0 <tokens>
    65cf:	01 00 00 
    65d2:	c3                   	ret    
    65d3:	66 66 2e 0f 1f 84 00 	data16 cs nopw 0x0(%rax,%rax,1)
    65da:	00 00 00 00 
    65de:	66 90                	xchg   %ax,%ax

00000000000065e0 <expr>:
    65e0:	f3 0f 1e fa          	endbr64 
    65e4:	41 57                	push   %r15
    65e6:	41 56                	push   %r14
    65e8:	41 55                	push   %r13
    65ea:	41 54                	push   %r12
    65ec:	55                   	push   %rbp
    65ed:	53                   	push   %rbx
    65ee:	48 83 ec 48          	sub    $0x48,%rsp
    65f2:	48 89 74 24 08       	mov    %rsi,0x8(%rsp)
    65f7:	4c 8d 64 24 30       	lea    0x30(%rsp),%r12
    65fc:	64 48 8b 04 25 28 00 	mov    %fs:0x28,%rax
    6603:	00 00 
    6605:	48 89 44 24 38       	mov    %rax,0x38(%rsp)
    660a:	31 c0                	xor    %eax,%eax
    660c:	80 3f 00             	cmpb   $0x0,(%rdi)
    660f:	c7 05 a7 a1 00 00 00 	movl   $0x0,0xa1a7(%rip)        # 107c0 <nr_token>
    6616:	00 00 00 
    6619:	0f 84 21 01 00 00    	je     6740 <expr+0x160>
    661f:	49 89 fe             	mov    %rdi,%r14
    6622:	49 89 ff             	mov    %rdi,%r15
    6625:	4c 8d 64 24 30       	lea    0x30(%rsp),%r12
    662a:	45 31 ed             	xor    %r13d,%r13d
    662d:	0f 1f 00             	nopl   (%rax)
    6630:	48 8d 2d a9 e9 00 00 	lea    0xe9a9(%rip),%rbp        # 14fe0 <re>
    6637:	31 db                	xor    %ebx,%ebx
    6639:	0f 1f 80 00 00 00 00 	nopl   0x0(%rax)
    6640:	45 31 c0             	xor    %r8d,%r8d
    6643:	4c 89 e1             	mov    %r12,%rcx
    6646:	ba 01 00 00 00       	mov    $0x1,%edx
    664b:	4c 89 fe             	mov    %r15,%rsi
    664e:	48 89 ef             	mov    %rbp,%rdi
    6651:	e8 ea be ff ff       	call   2540 <regexec@plt>
    6656:	0b 44 24 30          	or     0x30(%rsp),%eax
    665a:	74 64                	je     66c0 <expr+0xe0>
    665c:	83 c3 01             	add    $0x1,%ebx
    665f:	48 83 c5 40          	add    $0x40,%rbp
    6663:	83 fb 0d             	cmp    $0xd,%ebx
    6666:	75 d8                	jne    6640 <expr+0x60>
    6668:	4c 8d 0d e1 36 00 00 	lea    0x36e1(%rip),%r9        # 9d50 <__PRETTY_FUNCTION__.0+0x200>
    666f:	45 89 e8             	mov    %r13d,%r8d
    6672:	4c 89 f1             	mov    %r14,%rcx
    6675:	44 89 ea             	mov    %r13d,%edx
    6678:	48 8d 35 f1 33 00 00 	lea    0x33f1(%rip),%rsi        # 9a70 <__func__.1+0x3d8>
    667f:	bf 01 00 00 00       	mov    $0x1,%edi
    6684:	31 c0                	xor    %eax,%eax
    6686:	45 31 e4             	xor    %r12d,%r12d
    6689:	e8 c2 bc ff ff       	call   2350 <__printf_chk@plt>
    668e:	48 8b 44 24 08       	mov    0x8(%rsp),%rax
    6693:	c6 00 00             	movb   $0x0,(%rax)
    6696:	48 8b 44 24 38       	mov    0x38(%rsp),%rax
    669b:	64 48 2b 04 25 28 00 	sub    %fs:0x28,%rax
    66a2:	00 00 
    66a4:	0f 85 d5 01 00 00    	jne    687f <expr+0x29f>
    66aa:	48 83 c4 48          	add    $0x48,%rsp
    66ae:	44 89 e0             	mov    %r12d,%eax
    66b1:	5b                   	pop    %rbx
    66b2:	5d                   	pop    %rbp
    66b3:	41 5c                	pop    %r12
    66b5:	41 5d                	pop    %r13
    66b7:	41 5e                	pop    %r14
    66b9:	41 5f                	pop    %r15
    66bb:	c3                   	ret    
    66bc:	0f 1f 40 00          	nopl   0x0(%rax)
    66c0:	48 63 db             	movslq %ebx,%rbx
    66c3:	48 8d 05 76 74 00 00 	lea    0x7476(%rip),%rax        # db40 <rules>
    66ca:	8b 6c 24 34          	mov    0x34(%rsp),%ebp
    66ce:	48 c1 e3 04          	shl    $0x4,%rbx
    66d2:	8b 5c 18 08          	mov    0x8(%rax,%rbx,1),%ebx
    66d6:	41 01 ed             	add    %ebp,%r13d
    66d9:	81 fb 05 01 00 00    	cmp    $0x105,%ebx
    66df:	0f 8f cb 00 00 00    	jg     67b0 <expr+0x1d0>
    66e5:	81 fb 02 01 00 00    	cmp    $0x102,%ebx
    66eb:	0f 8f d7 00 00 00    	jg     67c8 <expr+0x1e8>
